Certificate:
    Data:
        Version: 3 (0x2)
        Serial Number: 2 (0x2)
    Signature Algorithm: sha1WithRSAEncryption
        Issuer: C=SE, O=Example, OU=Example Certificate Authority, CN=Example Root CA
        Validity
            Not Before: Oct 16 20:20:01 2023 GMT
            Not After : Oct 13 20:20:01 2033 GMT
        Subject: C=SE, O=Example, OU=Example Certificate Authority, CN=Example Cluster Authority
        Subject Public Key Info:
            Public Key Algorithm: rsaEncryption
                Public-Key: (2048 bit)
                Modulus:
                    00:9c:13:7f:49:fe:6a:8c:ac:82:40:e9:6e:87:0f:
                    a8:3c:5a:e4:20:e6:2e:b5:62:30:3b:67:fd:b4:32:
                    47:c9:87:dd:ac:04:6f:01:85:4b:9d:d3:d2:3e:f4:
                    48:b4:af:97:c5:f1:27:99:ea:b4:8f:20:29:da:ff:
                    72:5a:52:00:aa:ba:c4:93:1e:e3:7d:e0:b0:7e:b3:
                    f5:92:b3:00:19:55:20:a1:38:80:a3:a2:90:d3:b2:
                    c2:cd:1a:e8:e1:bf:9f:0c:05:94:22:c4:ba:78:65:
                    f5:a9:5f:d3:1a:6b:01:e5:0e:e3:ab:99:65:01:d8:
                    ec:60:4c:ea:eb:30:b2:29:88:95:62:fb:50:db:8e:
                    7d:41:4d:15:77:1c:76:3f:61:b7:f2:b3:12:41:fe:
                    89:3c:3b:ff:5c:2c:bc:ec:6a:3c:fb:78:af:6a:17:
                    fc:9c:82:0d:ab:83:a7:f1:1e:98:2c:d6:5d:88:75:
                    ed:57:86:35:16:40:96:5d:d8:ca:8a:79:08:34:a5:
                    28:6b:60:40:df:45:51:c7:a7:79:da:b3:0c:82:38:
                    45:0d:77:77:b5:a4:f5:0a:fe:f7:53:5a:98:4e:7d:
                    7c:ae:f7:3d:67:b6:ab:4c:69:c6:25:28:6a:f5:56:
                    5c:f2:b3:12:83:2c:b3:a0:29:29:77:9c:da:bf:ae:
                    43:77
                Exponent: 65537 (0x10001)
        X509v3 extensions:
            X509v3 Key Usage: critical
                Certificate Sign, CRL Sign
            X509v3 Basic Constraints: critical
                CA:TRUE, pathlen:0
            X509v3 Subject Key Identifier: 
                BE:B2:D1:B3:69:C7:DC:0C:DB:4E:1C:A2:83:56:E3:F2:6E:B8:67:CC
            X509v3 Authority Key Identifier: 
                keyid:21:20:7F:7A:D1:4E:97:AC:18:6F:E1:BD:30:86:26:FB:6A:AD:07:1F

            Authority Information Access: 
                CA Issuers - URI:http://example.com/ca/root.cer

            X509v3 CRL Distribution Points: 

                Full Name:
                  URI:http://example.com/ca/root.crl

    Signature Algorithm: sha1WithRSAEncryption
         a1:9b:a8:c5:e3:0a:90:15:1f:2f:29:2a:0e:26:80:e9:f5:cc:
         92:b0:4f:34:2a:e4:14:69:5a:63:14:50:77:9b:8b:2f:ee:7a:
         1f:8e:be:07:21:cf:60:7d:06:d2:92:2e:e5:33:94:4f:c1:90:
         3a:37:8d:7b:b5:5c:32:a0:ce:af:8a:93:1e:84:2d:93:06:8b:
         6c:5f:2b:6c:52:38:66:1a:c4:24:af:f1:4e:4d:64:e3:06:8c:
         27:de:53:15:6f:8b:aa:f2:3c:99:38:95:0c:69:1d:b8:a1:cc:
         9b:6f:73:a8:8b:41:ba:fe:53:b8:f0:e7:5a:dc:22:9f:2d:14:
         23:d0:15:80:56:c2:74:cd:c2:0f:7a:21:17:5d:ba:ed:6f:b0:
         48:bc:38:b4:34:e5:a2:87:4b:3e:4c:6c:7c:a7:f9:c3:e0:4d:
         33:0b:aa:de:fe:85:b6:dd:c6:8f:25:d3:3d:6c:97:82:2e:84:
         34:80:17:9d:2f:c7:49:b7:cb:7a:6c:e9:34:cd:96:a7:36:22:
         d2:01:12:6f:c2:da:02:f9:18:20:40:a7:b1:dd:9b:7c:0b:b9:
         6f:16:4b:ad:1a:0d:37:7b:82:a3:a2:30:af:b8:ea:18:3e:a3:
         30:99:19:ec:71:de:e0:45:49:c2:47:62:73:55:38:74:01:34:
         05:20:8d:b9
-----BEGIN CERTIFICATE-----
MIIEHDCCAwSgAwIBAgIBAjANBgkqhkiG9w0BAQUFADBhMQswCQYDVQQGEwJTRTEQ
MA4GA1UECgwHRXhhbXBsZTEmMCQGA1UECwwdRXhhbXBsZSBDZXJ0aWZpY2F0ZSBB
dXRob3JpdHkxGDAWBgNVBAMMD0V4YW1wbGUgUm9vdCBDQTAeFw0yMzEwMTYyMDIw
MDFaFw0zMzEwMTMyMDIwMDFaMGsxCzAJBgNVBAYTAlNFMRAwDgYDVQQKDAdFeGFt
cGxlMSYwJAYDVQQLDB1FeGFtcGxlIENlcnRpZmljYXRlIEF1dGhvcml0eTEiMCAG
A1UEAwwZRXhhbXBsZSBDbHVzdGVyIEF1dGhvcml0eTCCASIwDQYJKoZIhvcNAQEB
BQADggEPADCCAQoCggEBAJwTf0n+aoysgkDpbocPqDxa5CDmLrViMDtn/bQyR8mH
3awEbwGFS53T0j70SLSvl8XxJ5nqtI8gKdr/clpSAKq6xJMe433gsH6z9ZKzABlV
IKE4gKOikNOyws0a6OG/nwwFlCLEunhl9alf0xprAeUO46uZZQHY7GBM6uswsimI
lWL7UNuOfUFNFXccdj9ht/KzEkH+iTw7/1wsvOxqPPt4r2oX/JyCDauDp/EemCzW
XYh17VeGNRZAll3Yyop5CDSlKGtgQN9FUcenedqzDII4RQ13d7Wk9Qr+91NamE59
fK73PWe2q0xpxiUoavVWXPKzEoMss6ApKXec2r+uQ3cCAwEAAaOB1DCB0TAOBgNV
HQ8BAf8EBAMCAQYwEgYDVR0TAQH/BAgwBgEB/wIBADAdBgNVHQ4EFgQUvrLRs2nH
3AzbThyig1bj8m64Z8wwHwYDVR0jBBgwFoAUISB/etFOl6wYb+G9MIYm+2qtBx8w
OgYIKwYBBQUHAQEELjAsMCoGCCsGAQUFBzAChh5odHRwOi8vZXhhbXBsZS5jb20v
Y2Evcm9vdC5jZXIwLwYDVR0fBCgwJjAkoCKgIIYeaHR0cDovL2V4YW1wbGUuY29t
L2NhL3Jvb3QuY3JsMA0GCSqGSIb3DQEBBQUAA4IBAQChm6jF4wqQFR8vKSoOJoDp
9cySsE80KuQUaVpjFFB3m4sv7nofjr4HIc9gfQbSki7lM5RPwZA6N417tVwyoM6v
ipMehC2TBotsXytsUjhmGsQkr/FOTWTjBown3lMVb4uq8jyZOJUMaR24ocybb3Oo
i0G6/lO48Oda3CKfLRQj0BWAVsJ0zcIPeiEXXbrtb7BIvDi0NOWih0s+TGx8p/nD
4E0zC6re/oW23caPJdM9bJeCLoQ0gBedL8dJt8t6bOk0zZanNiLSARJvwtoC+Rgg
QKex3Zt8C7lvFkutGg03e4KjojCvuOoYPqMwmRnscd7gRUnCR2JzVTh0ATQFII25
-----END CERTIFICATE-----
