Certificate:
    Data:
        Version: 3 (0x2)
        Serial Number: 9 (0x9)
    Signature Algorithm: sha1WithRSAEncryption
        Issuer: C=SE, O=Example, OU=Example Certificate Authority, CN=Example Cluster Authority
        Validity
            Not Before: Oct 16 20:20:02 2023 GMT
            Not After : Apr  7 20:20:02 2029 GMT
        Subject: C=SE, O=Example, OU=Example Cluster, CN=Server 8
        Subject Public Key Info:
            Public Key Algorithm: rsaEncryption
                Public-Key: (2048 bit)
                Modulus:
                    00:d4:60:92:0b:cb:0e:b3:7b:a4:99:43:7a:e7:fa:
                    a7:b1:11:71:0c:e8:89:c5:40:c0:51:4d:f8:c4:05:
                    9e:f5:55:80:a0:e9:73:33:5d:6e:3f:52:7b:0b:bd:
                    46:63:62:7c:fe:bf:ad:13:38:93:3b:0b:0a:e7:bf:
                    14:5d:f2:98:9f:b4:b6:f2:b3:f7:27:52:9b:16:da:
                    09:a3:96:e7:44:e6:16:cc:bc:71:09:8d:2d:ea:00:
                    13:21:51:af:de:90:14:d5:5a:75:b7:b9:af:41:d9:
                    0f:b6:cb:61:ae:fd:dc:ea:eb:5b:a1:56:fc:2b:69:
                    49:95:34:5a:5e:3b:46:e2:64:58:2c:dd:17:9a:41:
                    93:7e:e5:be:4a:94:39:90:1c:bf:1f:ae:93:13:bf:
                    cc:db:cf:06:46:85:c9:c3:f6:ec:ec:f9:8e:d7:99:
                    59:98:0c:0c:93:92:77:79:3e:bf:c3:e6:67:98:b4:
                    39:78:a7:2a:06:0c:b4:de:82:90:b9:e2:08:a0:1c:
                    29:cc:bd:38:e8:7b:b5:89:21:bb:08:92:2d:b4:73:
                    c6:a2:3f:88:e6:1e:07:e3:31:d3:e2:e3:d1:d5:41:
                    d5:19:ec:e3:11:d1:16:2d:3e:46:4f:3e:1f:ee:32:
                    5b:f4:2f:34:f1:b5:fe:3d:09:e3:67:38:26:fa:dc:
                    ea:59
                Exponent: 65537 (0x10001)
        X509v3 extensions:
            X509v3 Key Usage: critical
                Digital Signature, Key Encipherment
            X509v3 Basic Constraints: 
                CA:FALSE
            X509v3 Extended Key Usage: 
                TLS Web Server Authentication, TLS Web Client Authentication
            X509v3 Subject Key Identifier: 
                2D:8E:C6:27:38:00:E4:16:27:2E:E9:E2:4A:8B:84:06:8F:BE:EB:A2
            X509v3 Authority Key Identifier: 
                keyid:BE:B2:D1:B3:69:C7:DC:0C:DB:4E:1C:A2:83:56:E3:F2:6E:B8:67:CC

            Authority Information Access: 
                CA Issuers - URI:http://example.com/ca/cluster.cer

            X509v3 CRL Distribution Points: 

                Full Name:
                  URI:http://example.com/ca/cluster.crl

    Signature Algorithm: sha1WithRSAEncryption
         89:a5:ff:17:20:3a:01:19:a9:b6:65:cc:e0:ec:64:de:14:45:
         04:99:42:36:38:00:09:cb:30:99:04:64:19:66:ca:f4:b8:c7:
         27:a8:a2:82:5d:ff:ac:52:6f:53:4e:5e:b6:ca:94:b1:92:15:
         06:f5:c1:ab:ab:9b:04:b4:05:e8:dc:58:be:ee:07:9b:eb:e7:
         98:e8:b7:0d:77:0c:b3:bb:cb:61:1c:d5:6d:61:72:90:96:6a:
         75:32:26:96:1f:d7:5a:a3:51:31:d9:cc:56:80:5c:6d:7d:64:
         42:95:47:d1:88:08:15:d7:e0:22:cb:34:14:35:f1:88:93:9a:
         f3:70:21:01:a5:cd:25:41:ea:ca:7f:2b:00:61:7c:1b:09:9c:
         a0:f9:55:18:67:4e:d5:bf:6e:b7:1b:cd:5f:f4:31:2e:d2:04:
         92:31:d0:09:ad:d6:9d:41:5f:4d:f4:e3:32:c1:84:46:6b:3e:
         f8:d8:a5:3d:44:f6:6b:a9:16:c0:bf:3f:d3:39:a3:cd:26:2f:
         6a:47:b5:34:88:c4:d9:66:70:10:31:ff:c1:f8:fb:3b:5e:45:
         81:39:2f:93:56:f3:5e:3b:6a:6c:47:7a:88:c5:e2:7e:35:c7:
         10:e7:40:6b:c0:41:a2:cc:93:ef:b9:e2:90:02:76:af:6a:4a:
         7e:0f:83:9d
-----BEGIN CERTIFICATE-----
MIIEIzCCAwugAwIBAgIBCTANBgkqhkiG9w0BAQUFADBrMQswCQYDVQQGEwJTRTEQ
MA4GA1UECgwHRXhhbXBsZTEmMCQGA1UECwwdRXhhbXBsZSBDZXJ0aWZpY2F0ZSBB
dXRob3JpdHkxIjAgBgNVBAMMGUV4YW1wbGUgQ2x1c3RlciBBdXRob3JpdHkwHhcN
MjMxMDE2MjAyMDAyWhcNMjkwNDA3MjAyMDAyWjBMMQswCQYDVQQGEwJTRTEQMA4G
A1UECgwHRXhhbXBsZTEYMBYGA1UECwwPRXhhbXBsZSBDbHVzdGVyMREwDwYDVQQD
DAhTZXJ2ZXIgODCCASIwDQYJKoZIhvcNAQEBBQADggEPADCCAQoCggEBANRgkgvL
DrN7pJlDeuf6p7ERcQzoicVAwFFN+MQFnvVVgKDpczNdbj9Sewu9RmNifP6/rRM4
kzsLCue/FF3ymJ+0tvKz9ydSmxbaCaOW50TmFsy8cQmNLeoAEyFRr96QFNVadbe5
r0HZD7bLYa793OrrW6FW/CtpSZU0Wl47RuJkWCzdF5pBk37lvkqUOZAcvx+ukxO/
zNvPBkaFycP27Oz5jteZWZgMDJOSd3k+v8PmZ5i0OXinKgYMtN6CkLniCKAcKcy9
OOh7tYkhuwiSLbRzxqI/iOYeB+Mx0+Lj0dVB1Rns4xHRFi0+Rk8+H+4yW/QvNPG1
/j0J42c4Jvrc6lkCAwEAAaOB8DCB7TAOBgNVHQ8BAf8EBAMCBaAwCQYDVR0TBAIw
ADAdBgNVHSUEFjAUBggrBgEFBQcDAQYIKwYBBQUHAwIwHQYDVR0OBBYEFC2Oxic4
AOQWJy7p4kqLhAaPvuuiMB8GA1UdIwQYMBaAFL6y0bNpx9wM204cooNW4/JuuGfM
MD0GCCsGAQUFBwEBBDEwLzAtBggrBgEFBQcwAoYhaHR0cDovL2V4YW1wbGUuY29t
L2NhL2NsdXN0ZXIuY2VyMDIGA1UdHwQrMCkwJ6AloCOGIWh0dHA6Ly9leGFtcGxl
LmNvbS9jYS9jbHVzdGVyLmNybDANBgkqhkiG9w0BAQUFAAOCAQEAiaX/FyA6ARmp
tmXM4Oxk3hRFBJlCNjgACcswmQRkGWbK9LjHJ6iigl3/rFJvU05etsqUsZIVBvXB
q6ubBLQF6NxYvu4Hm+vnmOi3DXcMs7vLYRzVbWFykJZqdTImlh/XWqNRMdnMVoBc
bX1kQpVH0YgIFdfgIss0FDXxiJOa83AhAaXNJUHqyn8rAGF8GwmcoPlVGGdO1b9u
txvNX/QxLtIEkjHQCa3WnUFfTfTjMsGERms++NilPUT2a6kWwL8/0zmjzSYvake1
NIjE2WZwEDH/wfj7O15FgTkvk1bzXjtqbEd6iMXifjXHEOdAa8BBosyT77nikAJ2
r2pKfg+DnQ==
-----END CERTIFICATE-----
