Certificate:
    Data:
        Version: 3 (0x2)
        Serial Number: 6 (0x6)
    Signature Algorithm: sha1WithRSAEncryption
        Issuer: C=SE, O=Example, OU=Example Certificate Authority, CN=Example Cluster Authority
        Validity
            Not Before: Oct 16 20:20:02 2023 GMT
            Not After : Apr  7 20:20:02 2029 GMT
        Subject: C=SE, O=Example, OU=Example Cluster, CN=Server 5
        Subject Public Key Info:
            Public Key Algorithm: rsaEncryption
                Public-Key: (2048 bit)
                Modulus:
                    00:d1:0e:33:bc:bc:97:d0:1c:ec:ce:03:60:72:c1:
                    17:d1:84:09:22:12:89:71:c4:de:0d:51:fe:0e:d4:
                    75:36:c4:e4:b8:6e:d7:3b:98:a3:41:ad:93:3a:83:
                    db:11:3b:45:b8:cc:67:67:b6:fb:dd:ed:9d:b0:a1:
                    1f:90:d8:a9:c4:1e:31:c2:d4:6c:d1:19:44:15:7d:
                    e9:48:7c:48:73:e2:cf:1a:c5:81:62:e4:c9:44:8f:
                    a3:ae:02:7d:55:12:0f:5d:74:ec:3c:66:c5:49:ab:
                    56:34:af:22:a5:24:45:3d:9e:3f:e9:b3:f6:83:0d:
                    73:2a:b5:71:23:60:8a:a6:56:08:e4:93:5e:60:c3:
                    be:50:86:23:9b:e4:00:24:0c:a5:00:d7:84:a5:b6:
                    b9:7d:29:96:5e:f2:14:b6:4c:b4:a5:18:8b:be:f0:
                    be:ca:4a:cf:f8:ea:61:00:3d:56:30:7f:1c:91:7e:
                    2f:86:36:b7:38:ee:01:43:cc:f2:e9:00:c3:e3:2e:
                    98:53:2a:16:98:57:b1:5a:d0:02:04:25:e7:1d:cd:
                    12:c4:d9:10:fa:9c:a0:79:bb:3f:1f:e7:39:a9:eb:
                    83:df:ac:4b:e4:6c:cd:20:48:04:59:de:16:f7:ac:
                    71:36:80:08:c4:26:43:64:41:b7:33:22:59:b4:0b:
                    a4:f1
                Exponent: 65537 (0x10001)
        X509v3 extensions:
            X509v3 Key Usage: critical
                Digital Signature, Key Encipherment
            X509v3 Basic Constraints: 
                CA:FALSE
            X509v3 Extended Key Usage: 
                TLS Web Server Authentication, TLS Web Client Authentication
            X509v3 Subject Key Identifier: 
                F3:DC:26:DC:2D:23:D9:8D:27:20:FC:FC:D0:38:29:4E:9F:98:D0:6A
            X509v3 Authority Key Identifier: 
                keyid:BE:B2:D1:B3:69:C7:DC:0C:DB:4E:1C:A2:83:56:E3:F2:6E:B8:67:CC

            Authority Information Access: 
                CA Issuers - URI:http://example.com/ca/cluster.cer

            X509v3 CRL Distribution Points: 

                Full Name:
                  URI:http://example.com/ca/cluster.crl

    Signature Algorithm: sha1WithRSAEncryption
         10:2c:f6:62:96:d1:69:ef:04:c5:bc:58:84:8c:d6:70:33:27:
         2a:34:77:3f:5b:b6:d4:21:64:c5:37:3b:c0:29:ee:23:48:f7:
         14:96:2b:91:03:8f:3b:95:d4:b6:ba:71:94:f4:91:8c:b5:60:
         dd:9d:2b:4c:c5:f9:1d:04:a6:09:16:d2:ec:ca:c6:b3:c6:49:
         ff:d1:df:1f:5a:55:62:c9:1d:c1:d6:82:cb:f7:78:76:37:cd:
         4d:60:c9:0a:3c:6f:90:30:08:31:44:e2:21:11:02:3f:63:62:
         3c:f2:e2:9a:c0:7c:c6:7d:18:87:ee:b5:68:b5:6f:75:47:68:
         2c:1e:e4:6d:66:c7:b7:ac:de:eb:7d:29:ef:a5:54:f9:67:b3:
         56:a9:9a:33:46:7b:cc:ec:31:95:64:ec:cd:0f:61:d8:b8:bd:
         b2:da:21:32:9f:34:1e:93:4a:99:9e:88:07:4b:a0:2b:e0:12:
         49:24:3a:68:0b:49:d1:82:00:81:38:73:15:99:65:0d:77:7b:
         84:b3:0a:f4:74:18:47:89:22:53:58:b2:36:22:62:89:e8:8f:
         5a:be:1f:c5:b7:8d:fe:7e:ae:16:05:be:7f:94:a5:4c:58:07:
         4c:17:27:7d:ed:d1:a8:83:6f:28:c4:2f:8e:98:77:35:1c:c4:
         a3:a2:4c:2b
-----BEGIN CERTIFICATE-----
MIIEIzCCAwugAwIBAgIBBjANBgkqhkiG9w0BAQUFADBrMQswCQYDVQQGEwJTRTEQ
MA4GA1UECgwHRXhhbXBsZTEmMCQGA1UECwwdRXhhbXBsZSBDZXJ0aWZpY2F0ZSBB
dXRob3JpdHkxIjAgBgNVBAMMGUV4YW1wbGUgQ2x1c3RlciBBdXRob3JpdHkwHhcN
MjMxMDE2MjAyMDAyWhcNMjkwNDA3MjAyMDAyWjBMMQswCQYDVQQGEwJTRTEQMA4G
A1UECgwHRXhhbXBsZTEYMBYGA1UECwwPRXhhbXBsZSBDbHVzdGVyMREwDwYDVQQD
DAhTZXJ2ZXIgNTCCASIwDQYJKoZIhvcNAQEBBQADggEPADCCAQoCggEBANEOM7y8
l9Ac7M4DYHLBF9GECSISiXHE3g1R/g7UdTbE5Lhu1zuYo0GtkzqD2xE7RbjMZ2e2
+93tnbChH5DYqcQeMcLUbNEZRBV96Uh8SHPizxrFgWLkyUSPo64CfVUSD1107Dxm
xUmrVjSvIqUkRT2eP+mz9oMNcyq1cSNgiqZWCOSTXmDDvlCGI5vkACQMpQDXhKW2
uX0pll7yFLZMtKUYi77wvspKz/jqYQA9VjB/HJF+L4Y2tzjuAUPM8ukAw+MumFMq
FphXsVrQAgQl5x3NEsTZEPqcoHm7Px/nOanrg9+sS+RszSBIBFneFvescTaACMQm
Q2RBtzMiWbQLpPECAwEAAaOB8DCB7TAOBgNVHQ8BAf8EBAMCBaAwCQYDVR0TBAIw
ADAdBgNVHSUEFjAUBggrBgEFBQcDAQYIKwYBBQUHAwIwHQYDVR0OBBYEFPPcJtwt
I9mNJyD8/NA4KU6fmNBqMB8GA1UdIwQYMBaAFL6y0bNpx9wM204cooNW4/JuuGfM
MD0GCCsGAQUFBwEBBDEwLzAtBggrBgEFBQcwAoYhaHR0cDovL2V4YW1wbGUuY29t
L2NhL2NsdXN0ZXIuY2VyMDIGA1UdHwQrMCkwJ6AloCOGIWh0dHA6Ly9leGFtcGxl
LmNvbS9jYS9jbHVzdGVyLmNybDANBgkqhkiG9w0BAQUFAAOCAQEAECz2YpbRae8E
xbxYhIzWcDMnKjR3P1u21CFkxTc7wCnuI0j3FJYrkQOPO5XUtrpxlPSRjLVg3Z0r
TMX5HQSmCRbS7MrGs8ZJ/9HfH1pVYskdwdaCy/d4djfNTWDJCjxvkDAIMUTiIREC
P2NiPPLimsB8xn0Yh+61aLVvdUdoLB7kbWbHt6ze630p76VU+WezVqmaM0Z7zOwx
lWTszQ9h2Li9stohMp80HpNKmZ6IB0ugK+ASSSQ6aAtJ0YIAgThzFZllDXd7hLMK
9HQYR4kiU1iyNiJiieiPWr4fxbeN/n6uFgW+f5SlTFgHTBcnfe3RqINvKMQvjph3
NRzEo6JMKw==
-----END CERTIFICATE-----
