Certificate:
    Data:
        Version: 3 (0x2)
        Serial Number: 12 (0xc)
    Signature Algorithm: sha1WithRSAEncryption
        Issuer: C=SE, O=Example, OU=Example Certificate Authority, CN=Example Cluster Authority
        Validity
            Not Before: Oct 16 20:20:03 2023 GMT
            Not After : Apr  7 20:20:03 2029 GMT
        Subject: C=SE, O=Example, OU=Example Cluster, CN=Server 11
        Subject Public Key Info:
            Public Key Algorithm: rsaEncryption
                Public-Key: (2048 bit)
                Modulus:
                    00:ba:77:51:df:9e:99:77:e2:84:d8:ce:0f:2e:59:
                    3f:c6:fe:b3:e7:f3:47:3f:f8:c3:2a:2d:6b:c6:5e:
                    b0:d5:c6:91:e2:de:8f:e1:e9:6d:6f:9b:68:ed:f7:
                    e0:43:19:1d:86:37:6d:f4:50:06:bd:8a:c1:ef:86:
                    65:b9:b8:d5:a0:bc:b4:ec:19:e2:27:cb:8e:91:6b:
                    82:78:12:8c:dd:b1:47:66:41:c0:9d:2c:a1:30:fe:
                    74:86:50:54:22:1c:88:39:38:2a:27:f3:24:09:72:
                    22:7a:9a:1a:6e:74:60:82:2a:75:be:ad:65:3f:ff:
                    f3:0a:b0:3e:90:2f:d0:05:a4:db:ed:9b:23:26:49:
                    e1:8b:d3:a1:fe:62:87:00:1e:77:b3:bd:d0:f1:62:
                    2d:f7:3c:5d:15:02:29:f8:e8:3f:2f:88:31:9e:35:
                    87:e9:ca:35:5c:4f:1c:3f:7d:80:91:a9:88:a8:c8:
                    07:86:a7:69:b4:ff:47:33:28:8e:5c:15:42:f2:4e:
                    5f:0b:d3:77:bd:5d:05:45:75:e4:23:6f:03:8a:0c:
                    91:a4:0c:76:22:91:8b:29:86:b0:74:3f:97:b8:8e:
                    91:52:27:78:17:54:b0:4c:ec:28:7e:e6:98:d4:c8:
                    11:d2:ee:12:a3:25:5c:41:24:fd:9e:8a:45:bb:27:
                    b5:8f
                Exponent: 65537 (0x10001)
        X509v3 extensions:
            X509v3 Key Usage: critical
                Digital Signature, Key Encipherment
            X509v3 Basic Constraints: 
                CA:FALSE
            X509v3 Extended Key Usage: 
                TLS Web Server Authentication, TLS Web Client Authentication
            X509v3 Subject Key Identifier: 
                88:B0:32:A5:51:B8:42:93:B3:98:72:0F:C0:B2:94:57:11:5E:82:21
            X509v3 Authority Key Identifier: 
                keyid:BE:B2:D1:B3:69:C7:DC:0C:DB:4E:1C:A2:83:56:E3:F2:6E:B8:67:CC

            Authority Information Access: 
                CA Issuers - URI:http://example.com/ca/cluster.cer

            X509v3 CRL Distribution Points: 

                Full Name:
                  URI:http://example.com/ca/cluster.crl

    Signature Algorithm: sha1WithRSAEncryption
         8a:57:bd:3a:94:38:5f:06:01:18:e6:39:09:ea:a7:e6:4f:a6:
         75:be:16:65:c1:9e:b0:be:62:65:cb:d0:a4:9b:1f:ee:7d:df:
         f2:33:f9:19:9c:21:6d:27:7d:8a:9e:f2:c9:b2:18:e7:74:ca:
         43:24:05:ef:46:0a:68:74:bf:79:c5:3f:c8:48:5d:4c:a0:9e:
         79:0b:6d:de:56:4b:86:b7:4b:e8:85:f6:27:b9:7b:57:d2:72:
         0c:ee:6a:b2:00:bb:f4:20:e2:46:98:5d:ce:27:a8:4b:3c:01:
         a3:7a:e8:f1:cd:8b:85:52:b3:21:80:c2:48:4a:a0:7d:a8:fb:
         ff:b0:33:51:af:2e:49:99:a4:58:ed:21:7c:4c:f7:7d:7a:9e:
         de:97:4b:d0:21:35:97:2b:a0:70:59:a9:98:00:a4:51:27:88:
         6f:3a:24:aa:8e:6e:6d:4c:d0:57:e4:82:19:03:0b:ae:4f:69:
         a1:17:16:f1:61:bf:4f:2e:eb:aa:33:67:37:d9:2e:ed:49:e5:
         ee:d9:44:77:cf:94:2c:50:c9:81:91:85:c2:89:7e:cf:e7:ba:
         4b:47:a2:05:88:bc:df:98:16:4c:6e:5a:5f:d0:17:d0:c2:41:
         f3:62:dd:c4:38:b7:81:fe:16:29:2d:2f:71:5b:3a:a8:9b:7f:
         12:11:c0:25
-----BEGIN CERTIFICATE-----
MIIEJDCCAwygAwIBAgIBDDANBgkqhkiG9w0BAQUFADBrMQswCQYDVQQGEwJTRTEQ
MA4GA1UECgwHRXhhbXBsZTEmMCQGA1UECwwdRXhhbXBsZSBDZXJ0aWZpY2F0ZSBB
dXRob3JpdHkxIjAgBgNVBAMMGUV4YW1wbGUgQ2x1c3RlciBBdXRob3JpdHkwHhcN
MjMxMDE2MjAyMDAzWhcNMjkwNDA3MjAyMDAzWjBNMQswCQYDVQQGEwJTRTEQMA4G
A1UECgwHRXhhbXBsZTEYMBYGA1UECwwPRXhhbXBsZSBDbHVzdGVyMRIwEAYDVQQD
DAlTZXJ2ZXIgMTEwggEiMA0GCSqGSIb3DQEBAQUAA4IBDwAwggEKAoIBAQC6d1Hf
npl34oTYzg8uWT/G/rPn80c/+MMqLWvGXrDVxpHi3o/h6W1vm2jt9+BDGR2GN230
UAa9isHvhmW5uNWgvLTsGeIny46Ra4J4EozdsUdmQcCdLKEw/nSGUFQiHIg5OCon
8yQJciJ6mhpudGCCKnW+rWU///MKsD6QL9AFpNvtmyMmSeGL06H+YocAHnezvdDx
Yi33PF0VAin46D8viDGeNYfpyjVcTxw/fYCRqYioyAeGp2m0/0czKI5cFULyTl8L
03e9XQVFdeQjbwOKDJGkDHYikYsphrB0P5e4jpFSJ3gXVLBM7Ch+5pjUyBHS7hKj
JVxBJP2eikW7J7WPAgMBAAGjgfAwge0wDgYDVR0PAQH/BAQDAgWgMAkGA1UdEwQC
MAAwHQYDVR0lBBYwFAYIKwYBBQUHAwEGCCsGAQUFBwMCMB0GA1UdDgQWBBSIsDKl
UbhCk7OYcg/AspRXEV6CITAfBgNVHSMEGDAWgBS+stGzacfcDNtOHKKDVuPybrhn
zDA9BggrBgEFBQcBAQQxMC8wLQYIKwYBBQUHMAKGIWh0dHA6Ly9leGFtcGxlLmNv
bS9jYS9jbHVzdGVyLmNlcjAyBgNVHR8EKzApMCegJaAjhiFodHRwOi8vZXhhbXBs
ZS5jb20vY2EvY2x1c3Rlci5jcmwwDQYJKoZIhvcNAQEFBQADggEBAIpXvTqUOF8G
ARjmOQnqp+ZPpnW+FmXBnrC+YmXL0KSbH+593/Iz+RmcIW0nfYqe8smyGOd0ykMk
Be9GCmh0v3nFP8hIXUygnnkLbd5WS4a3S+iF9ie5e1fScgzuarIAu/Qg4kaYXc4n
qEs8AaN66PHNi4VSsyGAwkhKoH2o+/+wM1GvLkmZpFjtIXxM9316nt6XS9AhNZcr
oHBZqZgApFEniG86JKqObm1M0FfkghkDC65PaaEXFvFhv08u66ozZzfZLu1J5e7Z
RHfPlCxQyYGRhcKJfs/nuktHogWIvN+YFkxuWl/QF9DCQfNi3cQ4t4H+FiktL3Fb
OqibfxIRwCU=
-----END CERTIFICATE-----
