Certificate:
    Data:
        Version: 3 (0x2)
        Serial Number: 1 (0x1)
    Signature Algorithm: sha1WithRSAEncryption
        Issuer: C=SE, O=Example, OU=Example Certificate Authority, CN=Example Cluster Authority
        Validity
            Not Before: Oct 16 20:20:01 2023 GMT
            Not After : Apr  7 20:20:01 2029 GMT
        Subject: C=SE, O=Example, OU=Example Cluster, CN=Server 0
        Subject Public Key Info:
            Public Key Algorithm: rsaEncryption
                Public-Key: (2048 bit)
                Modulus:
                    00:e2:83:87:8d:bf:f2:61:4c:0e:0d:0e:fc:08:3c:
                    3b:19:1c:de:25:c5:90:1d:71:40:27:d3:b1:6b:84:
                    5b:81:64:c5:1c:65:e4:37:29:08:46:a2:8e:0b:f3:
                    1e:b0:de:c0:5e:b4:7c:2c:89:be:3e:cc:79:6a:f0:
                    cb:24:72:c6:b5:b3:70:c6:80:80:36:f5:6d:55:23:
                    fe:3a:cf:d6:db:cc:d1:56:33:4e:cb:8f:6e:28:30:
                    94:99:ba:ac:5a:56:05:5e:98:12:05:c7:e7:da:18:
                    de:47:69:96:b0:9c:49:55:31:68:f7:c4:76:a9:9d:
                    c2:f4:ef:e3:e2:14:ef:0f:a8:8f:44:1a:dc:07:eb:
                    43:67:3e:d4:4d:fc:44:1f:b3:39:51:ec:7b:0e:2a:
                    a0:bd:a1:81:2f:fe:27:a9:12:3b:59:58:bd:c7:88:
                    77:79:65:34:b3:91:a9:53:b6:a9:8d:c4:d0:f4:c6:
                    21:e8:49:b2:22:e0:b0:4f:4a:af:73:49:73:92:86:
                    37:4a:98:01:fc:b1:38:93:57:4a:4a:72:f0:81:72:
                    b0:51:54:ef:00:68:f3:dc:27:31:c6:5f:dc:87:6e:
                    62:cf:61:0b:d0:0e:34:d5:19:55:62:bf:6e:5c:f2:
                    ff:37:9c:7f:ac:f9:9c:5a:33:27:a8:60:7c:2a:ba:
                    5d:33
                Exponent: 65537 (0x10001)
        X509v3 extensions:
            X509v3 Key Usage: critical
                Digital Signature, Key Encipherment
            X509v3 Basic Constraints: 
                CA:FALSE
            X509v3 Extended Key Usage: 
                TLS Web Server Authentication, TLS Web Client Authentication
            X509v3 Subject Key Identifier: 
                CF:DB:C1:67:05:AB:D5:66:21:E9:02:E4:2E:95:2A:41:A0:BF:D2:77
            X509v3 Authority Key Identifier: 
                keyid:BE:B2:D1:B3:69:C7:DC:0C:DB:4E:1C:A2:83:56:E3:F2:6E:B8:67:CC

            Authority Information Access: 
                CA Issuers - URI:http://example.com/ca/cluster.cer

            X509v3 CRL Distribution Points: 

                Full Name:
                  URI:http://example.com/ca/cluster.crl

    Signature Algorithm: sha1WithRSAEncryption
         57:c8:ba:e1:6d:9b:59:e6:55:e9:7b:47:ab:e0:f7:cc:1b:6f:
         a7:8d:de:19:f6:9b:89:e7:59:ac:e4:2a:ea:49:cb:e2:a1:b6:
         33:2a:e9:3f:7e:81:99:dd:8b:92:92:27:3a:9d:5b:8c:b9:98:
         7e:5e:67:b2:f9:29:c0:53:43:78:6b:27:a8:a3:36:e9:be:32:
         27:6c:2a:47:42:86:95:53:33:e7:cc:be:30:69:18:a6:15:e5:
         8e:0a:f6:6a:56:03:16:6a:d7:81:63:ac:4a:bc:1c:2a:e7:fe:
         ba:7e:98:2f:ab:bc:15:36:86:b1:7b:54:3a:3a:fe:01:92:2f:
         10:31:b0:fe:2c:54:e1:ef:ba:7b:2d:af:c3:16:a5:36:56:76:
         ce:f7:17:02:73:f0:40:77:72:53:a4:83:04:98:ef:dd:9d:9f:
         1d:4d:87:14:dd:45:72:18:7d:6b:75:02:f9:e2:bc:a4:b0:31:
         bf:37:22:d7:4d:d0:87:15:ea:0e:d4:33:5f:9b:7d:7e:61:69:
         b2:17:36:6d:e5:4f:25:1c:bd:c9:1a:0b:f2:de:44:de:cb:ef:
         57:d2:5d:b8:8b:30:7d:ec:83:56:35:85:89:fe:d6:c7:a0:3b:
         74:5c:2b:c9:ce:ba:bb:24:cc:a8:c6:fc:cf:1a:53:fb:81:a6:
         98:9d:53:a0
-----BEGIN CERTIFICATE-----
MIIEIzCCAwugAwIBAgIBATANBgkqhkiG9w0BAQUFADBrMQswCQYDVQQGEwJTRTEQ
MA4GA1UECgwHRXhhbXBsZTEmMCQGA1UECwwdRXhhbXBsZSBDZXJ0aWZpY2F0ZSBB
dXRob3JpdHkxIjAgBgNVBAMMGUV4YW1wbGUgQ2x1c3RlciBBdXRob3JpdHkwHhcN
MjMxMDE2MjAyMDAxWhcNMjkwNDA3MjAyMDAxWjBMMQswCQYDVQQGEwJTRTEQMA4G
A1UECgwHRXhhbXBsZTEYMBYGA1UECwwPRXhhbXBsZSBDbHVzdGVyMREwDwYDVQQD
DAhTZXJ2ZXIgMDCCASIwDQYJKoZIhvcNAQEBBQADggEPADCCAQoCggEBAOKDh42/
8mFMDg0O/Ag8Oxkc3iXFkB1xQCfTsWuEW4FkxRxl5DcpCEaijgvzHrDewF60fCyJ
vj7MeWrwyyRyxrWzcMaAgDb1bVUj/jrP1tvM0VYzTsuPbigwlJm6rFpWBV6YEgXH
59oY3kdplrCcSVUxaPfEdqmdwvTv4+IU7w+oj0Qa3AfrQ2c+1E38RB+zOVHsew4q
oL2hgS/+J6kSO1lYvceId3llNLORqVO2qY3E0PTGIehJsiLgsE9Kr3NJc5KGN0qY
AfyxOJNXSkpy8IFysFFU7wBo89wnMcZf3IduYs9hC9AONNUZVWK/blzy/zecf6z5
nFozJ6hgfCq6XTMCAwEAAaOB8DCB7TAOBgNVHQ8BAf8EBAMCBaAwCQYDVR0TBAIw
ADAdBgNVHSUEFjAUBggrBgEFBQcDAQYIKwYBBQUHAwIwHQYDVR0OBBYEFM/bwWcF
q9VmIekC5C6VKkGgv9J3MB8GA1UdIwQYMBaAFL6y0bNpx9wM204cooNW4/JuuGfM
MD0GCCsGAQUFBwEBBDEwLzAtBggrBgEFBQcwAoYhaHR0cDovL2V4YW1wbGUuY29t
L2NhL2NsdXN0ZXIuY2VyMDIGA1UdHwQrMCkwJ6AloCOGIWh0dHA6Ly9leGFtcGxl
LmNvbS9jYS9jbHVzdGVyLmNybDANBgkqhkiG9w0BAQUFAAOCAQEAV8i64W2bWeZV
6XtHq+D3zBtvp43eGfabiedZrOQq6knL4qG2MyrpP36Bmd2LkpInOp1bjLmYfl5n
svkpwFNDeGsnqKM26b4yJ2wqR0KGlVMz58y+MGkYphXljgr2alYDFmrXgWOsSrwc
Kuf+un6YL6u8FTaGsXtUOjr+AZIvEDGw/ixU4e+6ey2vwxalNlZ2zvcXAnPwQHdy
U6SDBJjv3Z2fHU2HFN1Fchh9a3UC+eK8pLAxvzci103QhxXqDtQzX5t9fmFpshc2
beVPJRy9yRoL8t5E3svvV9JduIswfeyDVjWFif7Wx6A7dFwryc66uyTMqMb8zxpT
+4GmmJ1ToA==
-----END CERTIFICATE-----
