Certificate:
    Data:
        Version: 3 (0x2)
        Serial Number: 3 (0x3)
    Signature Algorithm: sha1WithRSAEncryption
        Issuer: C=SE, O=Example, OU=Example Certificate Authority, CN=Example Cluster Authority
        Validity
            Not Before: Oct 16 20:20:01 2023 GMT
            Not After : Apr  7 20:20:01 2029 GMT
        Subject: C=SE, O=Example, OU=Example Cluster, CN=Server 2
        Subject Public Key Info:
            Public Key Algorithm: rsaEncryption
                Public-Key: (2048 bit)
                Modulus:
                    00:d8:b4:61:7c:4d:80:f7:3a:63:50:80:b5:f3:bb:
                    b1:98:95:ce:3f:28:a1:fb:e0:db:3b:ac:0f:d3:f3:
                    6e:40:5e:14:85:54:61:b8:b4:22:00:02:46:dc:d6:
                    96:c8:3a:f8:72:38:d1:df:ef:4f:c9:ac:3d:9d:db:
                    c6:b3:93:ea:41:bb:80:7b:ed:b9:ee:af:52:2b:20:
                    70:c0:14:40:72:39:d4:ee:cf:d7:00:89:f2:f3:61:
                    23:f9:5e:9c:61:71:5a:d3:ed:cb:92:c8:08:5f:11:
                    28:1e:08:8d:6b:2c:c6:7c:d9:7e:d1:80:e3:bc:e7:
                    0c:97:e3:d1:83:96:36:49:65:c2:85:7c:7e:ac:0a:
                    00:85:ee:6b:03:27:ec:33:7f:3e:87:44:70:6b:18:
                    b3:b5:60:d2:35:06:9a:87:b4:8d:7f:9c:94:66:e3:
                    d1:a5:bf:15:b4:ab:44:d6:a9:4f:cc:93:83:62:44:
                    80:ba:51:66:6b:f8:ca:71:0c:ac:9e:2d:09:ac:5c:
                    6c:49:1a:e4:e6:5a:b8:61:d2:6e:0f:f8:72:8c:bb:
                    10:a6:03:5b:48:ea:03:ce:83:3e:3e:96:9c:b8:a4:
                    5b:e5:5d:0a:2c:1f:b7:76:51:b9:dc:f9:64:3f:a2:
                    3c:87:74:3f:2a:81:d7:25:96:bb:fc:93:55:03:24:
                    68:c5
                Exponent: 65537 (0x10001)
        X509v3 extensions:
            X509v3 Key Usage: critical
                Digital Signature, Key Encipherment
            X509v3 Basic Constraints: 
                CA:FALSE
            X509v3 Extended Key Usage: 
                TLS Web Server Authentication, TLS Web Client Authentication
            X509v3 Subject Key Identifier: 
                D1:2D:00:87:52:6D:CB:2B:D3:BE:9C:07:6E:18:12:DE:D3:A4:2D:E5
            X509v3 Authority Key Identifier: 
                keyid:BE:B2:D1:B3:69:C7:DC:0C:DB:4E:1C:A2:83:56:E3:F2:6E:B8:67:CC

            Authority Information Access: 
                CA Issuers - URI:http://example.com/ca/cluster.cer

            X509v3 CRL Distribution Points: 

                Full Name:
                  URI:http://example.com/ca/cluster.crl

    Signature Algorithm: sha1WithRSAEncryption
         4b:14:ce:67:f3:f4:4c:69:b2:44:27:96:aa:2c:53:65:d5:a0:
         86:d9:5e:c5:1b:c3:dc:d2:ab:4d:ad:49:75:00:76:06:c6:04:
         32:1d:3b:96:62:03:7b:9c:d2:85:74:28:5d:9f:13:23:a2:d6:
         61:9f:e9:f0:5c:01:e1:27:f3:38:0e:8b:2e:13:7e:c0:f7:95:
         ad:06:a6:98:89:d9:38:f8:ff:04:33:3e:1e:77:44:59:07:70:
         70:44:91:e2:a1:61:76:d8:09:de:a7:9d:b9:b8:05:0e:2d:44:
         44:94:0d:bf:ca:ca:82:95:e4:50:f2:37:3c:56:1a:bc:3c:1b:
         13:ca:42:ea:e8:82:4c:ed:a1:6e:f6:cc:b9:19:b7:17:c7:cb:
         14:e5:e4:9e:9a:41:32:04:f5:c4:ca:56:3d:2a:2a:d9:4a:33:
         53:ad:de:d1:5c:d1:19:a5:84:e7:4d:eb:b5:68:5b:3a:11:8c:
         15:fe:c3:f3:a9:dd:e9:d3:92:14:8b:53:73:2d:c4:fb:49:a8:
         79:59:05:4f:02:b4:96:0c:d1:dd:8b:73:36:21:57:8e:95:88:
         e1:ab:63:49:45:a5:69:6b:d2:ef:fa:d5:50:a9:f4:d8:7f:5c:
         55:34:48:33:26:7e:d2:1f:37:aa:3b:9e:8e:92:04:77:87:5b:
         e9:76:63:d4
-----BEGIN CERTIFICATE-----
MIIEIzCCAwugAwIBAgIBAzANBgkqhkiG9w0BAQUFADBrMQswCQYDVQQGEwJTRTEQ
MA4GA1UECgwHRXhhbXBsZTEmMCQGA1UECwwdRXhhbXBsZSBDZXJ0aWZpY2F0ZSBB
dXRob3JpdHkxIjAgBgNVBAMMGUV4YW1wbGUgQ2x1c3RlciBBdXRob3JpdHkwHhcN
MjMxMDE2MjAyMDAxWhcNMjkwNDA3MjAyMDAxWjBMMQswCQYDVQQGEwJTRTEQMA4G
A1UECgwHRXhhbXBsZTEYMBYGA1UECwwPRXhhbXBsZSBDbHVzdGVyMREwDwYDVQQD
DAhTZXJ2ZXIgMjCCASIwDQYJKoZIhvcNAQEBBQADggEPADCCAQoCggEBANi0YXxN
gPc6Y1CAtfO7sZiVzj8oofvg2zusD9PzbkBeFIVUYbi0IgACRtzWlsg6+HI40d/v
T8msPZ3bxrOT6kG7gHvtue6vUisgcMAUQHI51O7P1wCJ8vNhI/lenGFxWtPty5LI
CF8RKB4IjWssxnzZftGA47znDJfj0YOWNkllwoV8fqwKAIXuawMn7DN/PodEcGsY
s7Vg0jUGmoe0jX+clGbj0aW/FbSrRNapT8yTg2JEgLpRZmv4ynEMrJ4tCaxcbEka
5OZauGHSbg/4coy7EKYDW0jqA86DPj6WnLikW+VdCiwft3ZRudz5ZD+iPId0PyqB
1yWWu/yTVQMkaMUCAwEAAaOB8DCB7TAOBgNVHQ8BAf8EBAMCBaAwCQYDVR0TBAIw
ADAdBgNVHSUEFjAUBggrBgEFBQcDAQYIKwYBBQUHAwIwHQYDVR0OBBYEFNEtAIdS
bcsr076cB24YEt7TpC3lMB8GA1UdIwQYMBaAFL6y0bNpx9wM204cooNW4/JuuGfM
MD0GCCsGAQUFBwEBBDEwLzAtBggrBgEFBQcwAoYhaHR0cDovL2V4YW1wbGUuY29t
L2NhL2NsdXN0ZXIuY2VyMDIGA1UdHwQrMCkwJ6AloCOGIWh0dHA6Ly9leGFtcGxl
LmNvbS9jYS9jbHVzdGVyLmNybDANBgkqhkiG9w0BAQUFAAOCAQEASxTOZ/P0TGmy
RCeWqixTZdWghtlexRvD3NKrTa1JdQB2BsYEMh07lmIDe5zShXQoXZ8TI6LWYZ/p
8FwB4SfzOA6LLhN+wPeVrQammInZOPj/BDM+HndEWQdwcESR4qFhdtgJ3qedubgF
Di1ERJQNv8rKgpXkUPI3PFYavDwbE8pC6uiCTO2hbvbMuRm3F8fLFOXknppBMgT1
xMpWPSoq2UozU63e0VzRGaWE503rtWhbOhGMFf7D86nd6dOSFItTcy3E+0moeVkF
TwK0lgzR3YtzNiFXjpWI4atjSUWlaWvS7/rVUKn02H9cVTRIMyZ+0h83qjuejpIE
d4db6XZj1A==
-----END CERTIFICATE-----
