Certificate:
    Data:
        Version: 3 (0x2)
        Serial Number: 2 (0x2)
    Signature Algorithm: sha1WithRSAEncryption
        Issuer: C=SE, O=Example, OU=Example Certificate Authority, CN=Example Cluster Authority
        Validity
            Not Before: Oct 16 20:20:01 2023 GMT
            Not After : Apr  7 20:20:01 2029 GMT
        Subject: C=SE, O=Example, OU=Example Cluster, CN=Server 1
        Subject Public Key Info:
            Public Key Algorithm: rsaEncryption
                Public-Key: (2048 bit)
                Modulus:
                    00:e3:bd:18:31:5c:0a:b3:bb:e5:bf:2e:b6:29:a8:
                    87:30:49:ff:08:62:95:5e:6e:b4:44:29:c8:1c:9e:
                    07:bc:1b:6d:d5:6a:d2:75:5a:77:0a:d1:88:82:b9:
                    d5:40:92:e7:10:6f:30:bb:5c:77:33:a6:cc:1f:00:
                    9b:25:f3:21:c1:f3:5f:02:5f:9c:84:dd:83:46:68:
                    08:f6:cd:e3:32:27:4d:13:8e:b6:bf:65:2e:4b:0f:
                    19:43:a2:50:cf:eb:30:58:02:2f:08:50:02:34:c1:
                    ef:24:49:4c:3e:14:e6:71:28:d9:07:ba:e3:83:04:
                    2b:ee:db:2b:1d:e5:38:81:4f:95:25:f4:8a:b2:fa:
                    92:61:b2:1f:c6:38:5c:15:b2:99:53:21:5e:70:ef:
                    ca:9c:47:5f:89:79:3b:89:09:15:54:64:b0:3b:ab:
                    51:70:4b:df:00:9f:45:cd:17:e0:b3:3c:b1:80:ea:
                    88:66:ab:8f:46:0d:34:ab:de:cb:83:3a:65:7b:92:
                    ac:80:a6:ea:9f:8e:06:a0:6f:e2:1b:2b:5e:58:df:
                    c0:ad:77:23:db:56:a2:2e:b1:a1:79:9b:91:e1:10:
                    61:9c:0c:12:82:48:fe:20:49:d6:fc:17:46:33:d2:
                    ec:e0:63:a4:ef:e0:d6:b6:95:86:49:c7:0e:1f:44:
                    c5:77
                Exponent: 65537 (0x10001)
        X509v3 extensions:
            X509v3 Key Usage: critical
                Digital Signature, Key Encipherment
            X509v3 Basic Constraints: 
                CA:FALSE
            X509v3 Extended Key Usage: 
                TLS Web Server Authentication, TLS Web Client Authentication
            X509v3 Subject Key Identifier: 
                8C:72:4C:D1:81:1D:26:58:D8:F5:DE:26:8C:AC:93:30:CA:B2:FF:0A
            X509v3 Authority Key Identifier: 
                keyid:BE:B2:D1:B3:69:C7:DC:0C:DB:4E:1C:A2:83:56:E3:F2:6E:B8:67:CC

            Authority Information Access: 
                CA Issuers - URI:http://example.com/ca/cluster.cer

            X509v3 CRL Distribution Points: 

                Full Name:
                  URI:http://example.com/ca/cluster.crl

    Signature Algorithm: sha1WithRSAEncryption
         72:04:b4:ac:eb:f2:7b:9a:3a:51:78:a7:93:38:94:85:61:f2:
         63:f6:5e:bf:e9:ec:24:d7:2d:39:71:3e:3f:2b:88:e7:1c:96:
         f3:08:e8:84:30:06:44:b6:9e:da:ad:48:4a:fa:9c:c7:a6:d7:
         e9:4c:74:83:81:cb:bf:4e:c3:fb:0c:50:20:d0:16:f1:f3:46:
         f1:7d:ef:0b:a3:ab:c9:99:ed:8c:ec:62:05:fa:b0:cb:ca:27:
         be:44:af:00:83:7e:92:6b:49:dc:8a:4c:bc:01:2a:c5:43:20:
         f4:57:f4:97:90:ac:19:d4:5b:ac:2c:c3:86:c9:0c:98:d6:03:
         7a:ed:0c:af:06:89:aa:b7:81:c1:79:d0:45:80:00:50:a0:0a:
         5f:c1:8e:8c:e5:3a:04:70:ae:2b:8b:d1:9a:00:a0:63:c3:fc:
         91:6d:f8:10:bc:db:2c:28:fe:72:06:e8:10:a9:f4:b1:d9:6c:
         10:e6:6d:f1:5b:1e:da:c7:9e:36:7b:5b:92:d0:d5:9b:5a:0d:
         be:c0:f3:47:67:18:26:49:81:41:7c:15:1c:4c:2b:cb:c1:55:
         7b:46:01:c2:bc:04:17:33:26:72:97:f9:f6:ab:6f:fa:7e:d4:
         da:c4:ee:87:61:dd:1e:4c:aa:f1:64:d2:f4:bb:48:aa:86:93:
         aa:d8:7d:3d
-----BEGIN CERTIFICATE-----
MIIEIzCCAwugAwIBAgIBAjANBgkqhkiG9w0BAQUFADBrMQswCQYDVQQGEwJTRTEQ
MA4GA1UECgwHRXhhbXBsZTEmMCQGA1UECwwdRXhhbXBsZSBDZXJ0aWZpY2F0ZSBB
dXRob3JpdHkxIjAgBgNVBAMMGUV4YW1wbGUgQ2x1c3RlciBBdXRob3JpdHkwHhcN
MjMxMDE2MjAyMDAxWhcNMjkwNDA3MjAyMDAxWjBMMQswCQYDVQQGEwJTRTEQMA4G
A1UECgwHRXhhbXBsZTEYMBYGA1UECwwPRXhhbXBsZSBDbHVzdGVyMREwDwYDVQQD
DAhTZXJ2ZXIgMTCCASIwDQYJKoZIhvcNAQEBBQADggEPADCCAQoCggEBAOO9GDFc
CrO75b8utimohzBJ/whilV5utEQpyByeB7wbbdVq0nVadwrRiIK51UCS5xBvMLtc
dzOmzB8AmyXzIcHzXwJfnITdg0ZoCPbN4zInTROOtr9lLksPGUOiUM/rMFgCLwhQ
AjTB7yRJTD4U5nEo2Qe644MEK+7bKx3lOIFPlSX0irL6kmGyH8Y4XBWymVMhXnDv
ypxHX4l5O4kJFVRksDurUXBL3wCfRc0X4LM8sYDqiGarj0YNNKvey4M6ZXuSrICm
6p+OBqBv4hsrXljfwK13I9tWoi6xoXmbkeEQYZwMEoJI/iBJ1vwXRjPS7OBjpO/g
1raVhknHDh9ExXcCAwEAAaOB8DCB7TAOBgNVHQ8BAf8EBAMCBaAwCQYDVR0TBAIw
ADAdBgNVHSUEFjAUBggrBgEFBQcDAQYIKwYBBQUHAwIwHQYDVR0OBBYEFIxyTNGB
HSZY2PXeJoyskzDKsv8KMB8GA1UdIwQYMBaAFL6y0bNpx9wM204cooNW4/JuuGfM
MD0GCCsGAQUFBwEBBDEwLzAtBggrBgEFBQcwAoYhaHR0cDovL2V4YW1wbGUuY29t
L2NhL2NsdXN0ZXIuY2VyMDIGA1UdHwQrMCkwJ6AloCOGIWh0dHA6Ly9leGFtcGxl
LmNvbS9jYS9jbHVzdGVyLmNybDANBgkqhkiG9w0BAQUFAAOCAQEAcgS0rOvye5o6
UXinkziUhWHyY/Zev+nsJNctOXE+PyuI5xyW8wjohDAGRLae2q1ISvqcx6bX6Ux0
g4HLv07D+wxQINAW8fNG8X3vC6OryZntjOxiBfqwy8onvkSvAIN+kmtJ3IpMvAEq
xUMg9Ff0l5CsGdRbrCzDhskMmNYDeu0MrwaJqreBwXnQRYAAUKAKX8GOjOU6BHCu
K4vRmgCgY8P8kW34ELzbLCj+cgboEKn0sdlsEOZt8Vse2seeNntbktDVm1oNvsDz
R2cYJkmBQXwVHEwry8FVe0YBwrwEFzMmcpf59qtv+n7U2sTuh2HdHkyq8WTS9LtI
qoaTqth9PQ==
-----END CERTIFICATE-----
