Certificate:
    Data:
        Version: 3 (0x2)
        Serial Number: 4 (0x4)
    Signature Algorithm: sha1WithRSAEncryption
        Issuer: C=SE, O=Example, OU=Example Certificate Authority, CN=Example Cluster Authority
        Validity
            Not Before: Oct 16 20:20:01 2023 GMT
            Not After : Apr  7 20:20:01 2029 GMT
        Subject: C=SE, O=Example, OU=Example Cluster, CN=Server 3
        Subject Public Key Info:
            Public Key Algorithm: rsaEncryption
                Public-Key: (2048 bit)
                Modulus:
                    00:cd:78:a2:a8:4b:bd:3d:d9:35:85:b3:ff:a9:16:
                    a3:ec:9e:d9:5d:51:bb:93:52:3e:fd:c8:a8:21:be:
                    3a:36:19:14:2f:c9:50:d9:c0:62:09:cd:36:98:fe:
                    a8:23:03:e9:28:c8:6e:9a:7b:96:22:fb:ee:c1:79:
                    41:87:c4:06:45:38:ef:c3:3e:83:3a:9d:6a:8a:98:
                    46:a8:53:d4:44:61:cb:c7:4b:bb:90:9d:63:2a:b1:
                    d9:03:d0:05:c4:ec:23:90:f7:f0:b9:1a:a2:e2:c7:
                    60:99:c6:74:a8:3e:cd:02:85:e4:1c:4f:f5:e8:c3:
                    aa:52:c6:eb:99:a4:cc:1a:72:4c:fa:87:88:1d:80:
                    af:a3:01:da:1f:f9:32:fa:f9:96:3c:df:12:12:ea:
                    18:4d:50:d3:0b:bc:77:bd:cf:5d:d6:5d:fe:90:0c:
                    a9:68:44:b9:eb:7f:97:32:cc:bb:ad:74:0a:cb:5d:
                    6b:9c:06:e0:bb:e6:a5:ff:de:7c:b1:fb:91:6e:f0:
                    c9:93:96:2d:4d:a6:9d:51:b3:a1:33:60:f7:6f:3e:
                    1a:e5:a0:36:49:7b:a0:19:9e:dc:df:67:a3:e8:0a:
                    71:6c:84:d7:30:ab:ff:ec:15:a4:08:3a:e3:24:14:
                    0a:af:53:14:fa:67:e1:db:a1:21:fc:cc:4b:c9:49:
                    52:c5
                Exponent: 65537 (0x10001)
        X509v3 extensions:
            X509v3 Key Usage: critical
                Digital Signature, Key Encipherment
            X509v3 Basic Constraints: 
                CA:FALSE
            X509v3 Extended Key Usage: 
                TLS Web Server Authentication, TLS Web Client Authentication
            X509v3 Subject Key Identifier: 
                B4:8E:4C:EC:A4:84:D8:35:29:4D:FC:35:07:88:5F:47:39:6A:B7:89
            X509v3 Authority Key Identifier: 
                keyid:BE:B2:D1:B3:69:C7:DC:0C:DB:4E:1C:A2:83:56:E3:F2:6E:B8:67:CC

            Authority Information Access: 
                CA Issuers - URI:http://example.com/ca/cluster.cer

            X509v3 CRL Distribution Points: 

                Full Name:
                  URI:http://example.com/ca/cluster.crl

    Signature Algorithm: sha1WithRSAEncryption
         68:37:b3:f9:08:71:be:23:6e:fe:f1:56:13:07:c4:bd:e6:89:
         dc:65:3f:be:ca:dd:0e:30:59:81:6a:25:f4:7c:44:d7:b3:5b:
         9a:56:d3:ab:c7:bc:f9:9c:e5:64:31:cf:b0:1b:91:45:a4:d9:
         10:0b:33:e6:25:72:e6:04:29:86:a3:96:f3:f4:ce:62:4a:eb:
         c4:98:74:55:10:34:b9:73:0b:93:36:0d:8c:a2:9c:b3:02:5b:
         f6:5d:d5:b4:2b:9d:d0:a4:85:c5:20:32:43:e8:85:9e:fa:73:
         19:36:e4:fe:72:bf:3a:d3:75:d3:3e:99:3e:9c:38:a4:47:ac:
         db:22:df:87:5b:6e:99:e5:24:3e:66:71:6a:4f:90:96:b9:13:
         cb:41:1e:8f:17:6c:1c:11:b0:22:2b:26:6e:a9:80:3e:7f:fe:
         8e:7a:12:cb:16:02:db:a8:52:3d:56:f1:97:7e:6a:84:ec:91:
         8c:73:27:84:02:a9:b3:c9:5a:d0:04:08:4b:01:74:9e:51:1e:
         48:d6:22:a2:ff:05:2d:90:08:d1:b6:17:d0:ca:9c:44:49:11:
         21:39:6e:d7:c7:01:2c:89:98:1e:74:fd:b1:99:c4:fd:af:32:
         4f:eb:57:0e:c8:df:da:fa:32:a2:10:78:1e:9f:5b:58:23:4e:
         b6:dd:09:b3
-----BEGIN CERTIFICATE-----
MIIEIzCCAwugAwIBAgIBBDANBgkqhkiG9w0BAQUFADBrMQswCQYDVQQGEwJTRTEQ
MA4GA1UECgwHRXhhbXBsZTEmMCQGA1UECwwdRXhhbXBsZSBDZXJ0aWZpY2F0ZSBB
dXRob3JpdHkxIjAgBgNVBAMMGUV4YW1wbGUgQ2x1c3RlciBBdXRob3JpdHkwHhcN
MjMxMDE2MjAyMDAxWhcNMjkwNDA3MjAyMDAxWjBMMQswCQYDVQQGEwJTRTEQMA4G
A1UECgwHRXhhbXBsZTEYMBYGA1UECwwPRXhhbXBsZSBDbHVzdGVyMREwDwYDVQQD
DAhTZXJ2ZXIgMzCCASIwDQYJKoZIhvcNAQEBBQADggEPADCCAQoCggEBAM14oqhL
vT3ZNYWz/6kWo+ye2V1Ru5NSPv3IqCG+OjYZFC/JUNnAYgnNNpj+qCMD6SjIbpp7
liL77sF5QYfEBkU478M+gzqdaoqYRqhT1ERhy8dLu5CdYyqx2QPQBcTsI5D38Lka
ouLHYJnGdKg+zQKF5BxP9ejDqlLG65mkzBpyTPqHiB2Ar6MB2h/5Mvr5ljzfEhLq
GE1Q0wu8d73PXdZd/pAMqWhEuet/lzLMu610Cstda5wG4Lvmpf/efLH7kW7wyZOW
LU2mnVGzoTNg928+GuWgNkl7oBme3N9no+gKcWyE1zCr/+wVpAg64yQUCq9TFPpn
4duhIfzMS8lJUsUCAwEAAaOB8DCB7TAOBgNVHQ8BAf8EBAMCBaAwCQYDVR0TBAIw
ADAdBgNVHSUEFjAUBggrBgEFBQcDAQYIKwYBBQUHAwIwHQYDVR0OBBYEFLSOTOyk
hNg1KU38NQeIX0c5areJMB8GA1UdIwQYMBaAFL6y0bNpx9wM204cooNW4/JuuGfM
MD0GCCsGAQUFBwEBBDEwLzAtBggrBgEFBQcwAoYhaHR0cDovL2V4YW1wbGUuY29t
L2NhL2NsdXN0ZXIuY2VyMDIGA1UdHwQrMCkwJ6AloCOGIWh0dHA6Ly9leGFtcGxl
LmNvbS9jYS9jbHVzdGVyLmNybDANBgkqhkiG9w0BAQUFAAOCAQEAaDez+QhxviNu
/vFWEwfEveaJ3GU/vsrdDjBZgWol9HxE17NbmlbTq8e8+ZzlZDHPsBuRRaTZEAsz
5iVy5gQphqOW8/TOYkrrxJh0VRA0uXMLkzYNjKKcswJb9l3VtCud0KSFxSAyQ+iF
nvpzGTbk/nK/OtN10z6ZPpw4pEes2yLfh1tumeUkPmZxak+QlrkTy0EejxdsHBGw
IismbqmAPn/+jnoSyxYC26hSPVbxl35qhOyRjHMnhAKps8la0AQISwF0nlEeSNYi
ov8FLZAI0bYX0MqcREkRITlu18cBLImYHnT9sZnE/a8yT+tXDsjf2voyohB4Hp9b
WCNOtt0Jsw==
-----END CERTIFICATE-----
