Certificate:
    Data:
        Version: 3 (0x2)
        Serial Number: 5 (0x5)
    Signature Algorithm: sha1WithRSAEncryption
        Issuer: C=SE, O=Example, OU=Example Certificate Authority, CN=Example Cluster Authority
        Validity
            Not Before: Oct 16 20:20:02 2023 GMT
            Not After : Apr  7 20:20:02 2029 GMT
        Subject: C=SE, O=Example, OU=Example Cluster, CN=Server 4
        Subject Public Key Info:
            Public Key Algorithm: rsaEncryption
                Public-Key: (2048 bit)
                Modulus:
                    00:c0:73:af:be:20:53:0a:c9:3e:1d:95:f3:97:c4:
                    a2:8e:c4:1b:1e:a1:45:92:29:db:44:80:5e:54:12:
                    da:a4:54:a2:3d:a7:68:1e:77:cf:6d:20:43:38:5a:
                    cb:93:90:06:e9:bd:0b:e2:10:66:3f:35:bb:5b:68:
                    69:56:8d:55:f0:65:d1:ba:3a:75:b7:5d:6d:c8:d1:
                    c0:4d:b3:d7:fa:44:e5:f3:a3:24:4a:11:34:84:5a:
                    e1:3c:e2:f8:7a:13:e4:50:a7:da:9d:32:39:c0:81:
                    16:b7:c7:21:e3:26:49:da:cf:a2:71:fd:68:dd:2a:
                    26:7f:d5:d3:e4:f2:bf:9b:7d:35:43:11:ed:6b:30:
                    aa:9e:33:7c:50:55:fa:df:16:f7:12:3d:a1:7b:e9:
                    89:69:70:52:fd:1e:93:73:1d:fe:af:1d:17:b5:09:
                    71:6c:87:70:29:24:2f:e9:46:66:e2:10:52:ca:d9:
                    ad:d3:ea:bf:0e:c4:68:67:3a:f4:9c:2f:61:c5:49:
                    69:8c:bd:ea:9a:35:a5:bb:35:bb:ad:50:c0:08:37:
                    2e:3a:ba:b7:de:af:96:b0:dc:53:8b:4e:ae:b1:70:
                    c7:26:24:0c:8f:91:cc:67:c0:35:29:64:66:0a:42:
                    ac:85:e7:fd:1f:22:16:ef:98:15:71:92:11:f9:2e:
                    73:71
                Exponent: 65537 (0x10001)
        X509v3 extensions:
            X509v3 Key Usage: critical
                Digital Signature, Key Encipherment
            X509v3 Basic Constraints: 
                CA:FALSE
            X509v3 Extended Key Usage: 
                TLS Web Server Authentication, TLS Web Client Authentication
            X509v3 Subject Key Identifier: 
                0C:A1:65:38:FE:22:6B:C3:01:E5:98:C4:B3:48:26:CA:3D:3F:52:60
            X509v3 Authority Key Identifier: 
                keyid:BE:B2:D1:B3:69:C7:DC:0C:DB:4E:1C:A2:83:56:E3:F2:6E:B8:67:CC

            Authority Information Access: 
                CA Issuers - URI:http://example.com/ca/cluster.cer

            X509v3 CRL Distribution Points: 

                Full Name:
                  URI:http://example.com/ca/cluster.crl

    Signature Algorithm: sha1WithRSAEncryption
         8b:5a:69:4b:2e:91:54:6a:91:6f:db:44:53:2d:54:6a:3e:15:
         b4:3a:48:71:d7:5e:94:70:ad:04:f0:8b:09:63:ab:85:1b:88:
         c7:bd:cd:40:97:69:ba:8d:c5:c6:12:6b:dc:69:41:32:c4:40:
         2e:01:d9:60:77:56:a2:a3:d3:16:26:58:25:6f:fb:7d:5d:0a:
         e1:48:52:ff:e2:c0:cd:83:98:34:e8:49:9a:c4:81:c7:97:0f:
         af:c6:18:b9:42:3b:e5:fa:2d:56:9c:19:b2:33:ca:d4:04:63:
         ce:2f:67:62:cc:34:cc:d6:b0:5f:a2:9a:c4:7a:27:dc:2f:b6:
         df:bb:6d:d0:99:b9:2c:9c:93:15:8f:72:60:5c:74:08:ef:31:
         d3:df:fd:bf:64:af:de:18:19:e3:87:91:e6:5d:01:ed:ec:34:
         b9:7f:93:40:13:6a:73:12:76:7b:b7:7d:be:e8:96:62:a9:d7:
         52:cc:d0:22:9b:fa:e4:52:40:dc:c5:e7:68:a9:09:b8:aa:8d:
         f3:39:f1:5a:37:2e:b5:cc:72:21:7c:67:c7:b1:7a:aa:f9:d1:
         1f:95:60:d0:6e:a5:50:35:15:7b:50:e1:41:3c:c8:7b:65:ea:
         a6:d1:31:e1:f8:33:1b:41:6a:08:a6:92:cb:d2:97:13:3b:fd:
         cd:48:74:bb
-----BEGIN CERTIFICATE-----
MIIEIzCCAwugAwIBAgIBBTANBgkqhkiG9w0BAQUFADBrMQswCQYDVQQGEwJTRTEQ
MA4GA1UECgwHRXhhbXBsZTEmMCQGA1UECwwdRXhhbXBsZSBDZXJ0aWZpY2F0ZSBB
dXRob3JpdHkxIjAgBgNVBAMMGUV4YW1wbGUgQ2x1c3RlciBBdXRob3JpdHkwHhcN
MjMxMDE2MjAyMDAyWhcNMjkwNDA3MjAyMDAyWjBMMQswCQYDVQQGEwJTRTEQMA4G
A1UECgwHRXhhbXBsZTEYMBYGA1UECwwPRXhhbXBsZSBDbHVzdGVyMREwDwYDVQQD
DAhTZXJ2ZXIgNDCCASIwDQYJKoZIhvcNAQEBBQADggEPADCCAQoCggEBAMBzr74g
UwrJPh2V85fEoo7EGx6hRZIp20SAXlQS2qRUoj2naB53z20gQzhay5OQBum9C+IQ
Zj81u1toaVaNVfBl0bo6dbddbcjRwE2z1/pE5fOjJEoRNIRa4Tzi+HoT5FCn2p0y
OcCBFrfHIeMmSdrPonH9aN0qJn/V0+Tyv5t9NUMR7Wswqp4zfFBV+t8W9xI9oXvp
iWlwUv0ek3Md/q8dF7UJcWyHcCkkL+lGZuIQUsrZrdPqvw7EaGc69JwvYcVJaYy9
6po1pbs1u61QwAg3Ljq6t96vlrDcU4tOrrFwxyYkDI+RzGfANSlkZgpCrIXn/R8i
Fu+YFXGSEfkuc3ECAwEAAaOB8DCB7TAOBgNVHQ8BAf8EBAMCBaAwCQYDVR0TBAIw
ADAdBgNVHSUEFjAUBggrBgEFBQcDAQYIKwYBBQUHAwIwHQYDVR0OBBYEFAyhZTj+
ImvDAeWYxLNIJso9P1JgMB8GA1UdIwQYMBaAFL6y0bNpx9wM204cooNW4/JuuGfM
MD0GCCsGAQUFBwEBBDEwLzAtBggrBgEFBQcwAoYhaHR0cDovL2V4YW1wbGUuY29t
L2NhL2NsdXN0ZXIuY2VyMDIGA1UdHwQrMCkwJ6AloCOGIWh0dHA6Ly9leGFtcGxl
LmNvbS9jYS9jbHVzdGVyLmNybDANBgkqhkiG9w0BAQUFAAOCAQEAi1ppSy6RVGqR
b9tEUy1Uaj4VtDpIcddelHCtBPCLCWOrhRuIx73NQJdpuo3FxhJr3GlBMsRALgHZ
YHdWoqPTFiZYJW/7fV0K4UhS/+LAzYOYNOhJmsSBx5cPr8YYuUI75fotVpwZsjPK
1ARjzi9nYsw0zNawX6KaxHon3C+237tt0Jm5LJyTFY9yYFx0CO8x09/9v2Sv3hgZ
44eR5l0B7ew0uX+TQBNqcxJ2e7d9vuiWYqnXUszQIpv65FJA3MXnaKkJuKqN8znx
WjcutcxyIXxnx7F6qvnRH5Vg0G6lUDUVe1DhQTzIe2XqptEx4fgzG0FqCKaSy9KX
Ezv9zUh0uw==
-----END CERTIFICATE-----
