Certificate:
    Data:
        Version: 3 (0x2)
        Serial Number: 7 (0x7)
    Signature Algorithm: sha1WithRSAEncryption
        Issuer: C=SE, O=Example, OU=Example Certificate Authority, CN=Example Cluster Authority
        Validity
            Not Before: Oct 16 20:20:02 2023 GMT
            Not After : Apr  7 20:20:02 2029 GMT
        Subject: C=SE, O=Example, OU=Example Cluster, CN=Server 6
        Subject Public Key Info:
            Public Key Algorithm: rsaEncryption
                Public-Key: (2048 bit)
                Modulus:
                    00:ae:d1:bd:c6:eb:0a:96:7d:ec:1f:e5:f6:6d:48:
                    ae:3c:ec:f0:95:81:7e:4c:58:b4:0c:e2:51:c6:06:
                    83:e3:65:45:3a:49:9d:d7:a7:f2:5c:4c:80:af:62:
                    c4:ee:1e:ea:ca:b1:f1:bf:ca:fa:14:6d:1d:0f:2e:
                    69:e2:96:de:2e:74:1f:ce:d4:7b:50:62:b7:d5:02:
                    ba:81:78:cc:bc:a6:56:6e:9e:f5:03:4e:50:f6:65:
                    98:d2:ba:4f:e0:39:27:4a:92:6c:f7:f4:77:39:01:
                    e5:e2:74:51:42:de:4f:b1:6c:8c:73:91:0d:a5:71:
                    03:4a:a7:78:88:56:c0:ac:f3:0d:ac:f4:8f:35:12:
                    7f:aa:26:fc:99:27:ee:fc:21:ee:c3:98:2b:9f:b1:
                    95:26:f2:91:f1:4f:3c:b9:e5:5d:32:43:2b:30:64:
                    1d:80:57:13:18:db:64:8b:2d:24:a7:a5:6c:c0:a0:
                    e0:2e:ab:9e:21:4f:73:28:6a:1c:5c:f5:d8:50:25:
                    0c:7f:08:a3:eb:47:30:cc:7a:3d:af:d6:a1:c7:0f:
                    7f:62:84:35:32:f1:f4:b1:35:f0:62:c1:a2:da:0c:
                    d0:7d:8b:9d:85:cc:2d:89:5a:0d:34:ae:a4:7a:97:
                    73:a6:58:de:e9:ac:d8:f0:34:3e:41:31:be:c9:9b:
                    9c:0f
                Exponent: 65537 (0x10001)
        X509v3 extensions:
            X509v3 Key Usage: critical
                Digital Signature, Key Encipherment
            X509v3 Basic Constraints: 
                CA:FALSE
            X509v3 Extended Key Usage: 
                TLS Web Server Authentication, TLS Web Client Authentication
            X509v3 Subject Key Identifier: 
                F6:EF:E2:CF:34:35:3B:37:4B:1D:A2:C5:F3:17:98:AC:C1:57:7A:FF
            X509v3 Authority Key Identifier: 
                keyid:BE:B2:D1:B3:69:C7:DC:0C:DB:4E:1C:A2:83:56:E3:F2:6E:B8:67:CC

            Authority Information Access: 
                CA Issuers - URI:http://example.com/ca/cluster.cer

            X509v3 CRL Distribution Points: 

                Full Name:
                  URI:http://example.com/ca/cluster.crl

    Signature Algorithm: sha1WithRSAEncryption
         13:20:3e:24:d5:2f:b6:82:9f:84:0b:f2:d2:e4:c2:f1:b8:bb:
         78:ed:8d:e2:d4:e7:ba:c5:9a:c0:da:09:3f:19:81:a5:19:16:
         45:0c:f1:13:08:95:b4:55:63:28:51:eb:cd:5d:39:ca:be:8a:
         d2:dc:40:1b:9d:3f:bb:03:2a:ed:a5:39:9f:f0:1e:12:59:f8:
         74:6f:be:31:d9:ae:27:cb:6a:a6:bb:ef:48:87:ff:77:b6:d2:
         e8:9b:14:bd:73:7b:66:de:2d:1f:ac:99:9e:15:73:9a:93:64:
         1c:00:df:34:b0:06:b6:4e:6c:ba:91:00:70:3f:43:a2:20:af:
         aa:65:60:08:a1:58:40:f4:0f:48:37:b0:e2:a4:f5:28:26:46:
         9c:9c:fd:de:d6:5d:4a:75:76:1e:4d:07:d5:14:10:5a:41:29:
         4e:6f:e5:05:46:61:b1:97:a6:ba:ae:05:2a:83:8e:a3:7d:68:
         c5:79:be:ee:40:25:96:43:6f:6a:09:f7:da:53:20:8b:ae:c5:
         49:28:72:5d:9b:ea:54:3f:ca:65:3f:22:de:37:b4:49:fb:52:
         8d:11:ee:0f:d7:33:f3:47:9e:ff:18:98:46:f0:5e:b9:35:f7:
         04:9c:2a:ea:e4:05:cc:79:31:00:3f:30:70:b9:48:0b:70:54:
         a0:d9:87:73
-----BEGIN CERTIFICATE-----
MIIEIzCCAwugAwIBAgIBBzANBgkqhkiG9w0BAQUFADBrMQswCQYDVQQGEwJTRTEQ
MA4GA1UECgwHRXhhbXBsZTEmMCQGA1UECwwdRXhhbXBsZSBDZXJ0aWZpY2F0ZSBB
dXRob3JpdHkxIjAgBgNVBAMMGUV4YW1wbGUgQ2x1c3RlciBBdXRob3JpdHkwHhcN
MjMxMDE2MjAyMDAyWhcNMjkwNDA3MjAyMDAyWjBMMQswCQYDVQQGEwJTRTEQMA4G
A1UECgwHRXhhbXBsZTEYMBYGA1UECwwPRXhhbXBsZSBDbHVzdGVyMREwDwYDVQQD
DAhTZXJ2ZXIgNjCCASIwDQYJKoZIhvcNAQEBBQADggEPADCCAQoCggEBAK7Rvcbr
CpZ97B/l9m1Irjzs8JWBfkxYtAziUcYGg+NlRTpJnden8lxMgK9ixO4e6sqx8b/K
+hRtHQ8uaeKW3i50H87Ue1Bit9UCuoF4zLymVm6e9QNOUPZlmNK6T+A5J0qSbPf0
dzkB5eJ0UULeT7FsjHORDaVxA0qneIhWwKzzDaz0jzUSf6om/Jkn7vwh7sOYK5+x
lSbykfFPPLnlXTJDKzBkHYBXExjbZIstJKelbMCg4C6rniFPcyhqHFz12FAlDH8I
o+tHMMx6Pa/WoccPf2KENTLx9LE18GLBotoM0H2LnYXMLYlaDTSupHqXc6ZY3ums
2PA0PkExvsmbnA8CAwEAAaOB8DCB7TAOBgNVHQ8BAf8EBAMCBaAwCQYDVR0TBAIw
ADAdBgNVHSUEFjAUBggrBgEFBQcDAQYIKwYBBQUHAwIwHQYDVR0OBBYEFPbv4s80
NTs3Sx2ixfMXmKzBV3r/MB8GA1UdIwQYMBaAFL6y0bNpx9wM204cooNW4/JuuGfM
MD0GCCsGAQUFBwEBBDEwLzAtBggrBgEFBQcwAoYhaHR0cDovL2V4YW1wbGUuY29t
L2NhL2NsdXN0ZXIuY2VyMDIGA1UdHwQrMCkwJ6AloCOGIWh0dHA6Ly9leGFtcGxl
LmNvbS9jYS9jbHVzdGVyLmNybDANBgkqhkiG9w0BAQUFAAOCAQEAEyA+JNUvtoKf
hAvy0uTC8bi7eO2N4tTnusWawNoJPxmBpRkWRQzxEwiVtFVjKFHrzV05yr6K0txA
G50/uwMq7aU5n/AeEln4dG++MdmuJ8tqprvvSIf/d7bS6JsUvXN7Zt4tH6yZnhVz
mpNkHADfNLAGtk5supEAcD9DoiCvqmVgCKFYQPQPSDew4qT1KCZGnJz93tZdSnV2
Hk0H1RQQWkEpTm/lBUZhsZemuq4FKoOOo31oxXm+7kAllkNvagn32lMgi67FSShy
XZvqVD/KZT8i3je0SftSjRHuD9cz80ee/xiYRvBeuTX3BJwq6uQFzHkxAD8wcLlI
C3BUoNmHcw==
-----END CERTIFICATE-----
