Certificate:
    Data:
        Version: 3 (0x2)
        Serial Number: 8 (0x8)
    Signature Algorithm: sha1WithRSAEncryption
        Issuer: C=SE, O=Example, OU=Example Certificate Authority, CN=Example Cluster Authority
        Validity
            Not Before: Oct 16 20:20:02 2023 GMT
            Not After : Apr  7 20:20:02 2029 GMT
        Subject: C=SE, O=Example, OU=Example Cluster, CN=Server 7
        Subject Public Key Info:
            Public Key Algorithm: rsaEncryption
                Public-Key: (2048 bit)
                Modulus:
                    00:fb:2d:9f:c8:00:51:97:df:c8:22:4b:38:84:7d:
                    24:04:87:c4:da:25:f6:9f:17:07:bd:10:ea:33:1b:
                    83:94:ca:e2:41:44:19:b2:34:35:18:fe:83:bc:c2:
                    5c:ed:96:ed:03:2a:2f:1a:ef:00:2c:08:9b:77:ba:
                    35:18:42:c2:5d:59:60:9b:63:0b:70:4e:54:a4:56:
                    fc:c5:ae:da:3b:92:f2:ab:30:8a:08:0b:43:6b:2b:
                    f2:ce:3d:a3:67:60:34:24:8d:d8:5d:c0:df:7f:1a:
                    97:e8:98:07:29:67:98:5a:6e:a1:1f:5c:a0:12:2b:
                    bd:f9:f3:f4:a1:05:c6:f0:2f:6a:46:e7:26:84:c2:
                    e1:1d:53:a6:8f:f9:8a:ab:0b:b3:d2:63:5e:95:f4:
                    99:b5:52:0b:5b:a8:65:5c:b2:c7:21:84:73:87:e0:
                    96:94:29:c2:b9:a5:14:52:b6:6e:72:84:58:22:9c:
                    91:19:22:85:be:ce:c8:4d:5e:6f:ef:25:98:b5:d4:
                    11:7e:be:5d:20:82:1e:a5:dc:de:8d:2d:73:e5:a0:
                    c6:a1:b0:f0:21:cc:09:7c:b5:93:59:ca:05:56:ea:
                    46:db:e3:a2:fc:52:36:d2:f9:e2:d4:a8:b7:9d:4a:
                    07:17:9e:66:18:ab:e0:10:cb:a7:e4:36:22:ac:b2:
                    73:a1
                Exponent: 65537 (0x10001)
        X509v3 extensions:
            X509v3 Key Usage: critical
                Digital Signature, Key Encipherment
            X509v3 Basic Constraints: 
                CA:FALSE
            X509v3 Extended Key Usage: 
                TLS Web Server Authentication, TLS Web Client Authentication
            X509v3 Subject Key Identifier: 
                95:B9:C4:D7:51:6A:AD:07:E1:B7:6E:31:78:23:6A:6E:1D:DA:C4:4B
            X509v3 Authority Key Identifier: 
                keyid:BE:B2:D1:B3:69:C7:DC:0C:DB:4E:1C:A2:83:56:E3:F2:6E:B8:67:CC

            Authority Information Access: 
                CA Issuers - URI:http://example.com/ca/cluster.cer

            X509v3 CRL Distribution Points: 

                Full Name:
                  URI:http://example.com/ca/cluster.crl

    Signature Algorithm: sha1WithRSAEncryption
         99:b7:69:ca:d8:9a:12:64:8b:e2:7b:a3:87:2e:5a:af:ef:03:
         93:04:77:09:60:73:da:16:bb:07:5d:83:61:81:17:2a:75:89:
         13:70:f6:c0:0f:92:31:82:43:76:18:25:05:32:48:a7:54:25:
         ba:ab:cb:bd:90:95:c4:54:6a:23:46:dd:ff:79:5e:4c:67:73:
         cc:03:45:1f:00:9c:77:85:19:6c:61:ee:3c:11:23:db:b6:68:
         95:d8:f0:84:00:69:a5:68:55:56:32:0d:4c:6b:3e:48:70:cc:
         71:e4:e4:aa:eb:ed:2e:a5:52:a7:5e:48:00:c4:ee:7e:bf:3b:
         f8:30:5b:58:30:b8:4c:8e:37:aa:7b:cc:8f:77:15:09:cd:73:
         c0:0e:40:bc:a9:1f:5d:3c:d1:da:7a:27:43:1d:55:2e:65:43:
         ca:be:2d:ad:fa:50:d8:73:75:5e:78:bf:e6:63:d7:60:3c:b3:
         05:d9:77:de:f8:c6:52:81:43:63:4c:ee:ec:9f:c3:a7:2a:3d:
         6d:5d:53:db:0c:bd:29:96:59:fc:1b:ad:79:5c:fd:c8:87:a5:
         10:ac:78:57:cf:6b:ea:d9:00:ce:88:21:b3:a8:85:78:33:ab:
         e6:43:18:bc:8d:21:34:a2:ba:a7:bc:8c:cf:8f:21:da:e8:b3:
         a8:25:69:52
-----BEGIN CERTIFICATE-----
MIIEIzCCAwugAwIBAgIBCDANBgkqhkiG9w0BAQUFADBrMQswCQYDVQQGEwJTRTEQ
MA4GA1UECgwHRXhhbXBsZTEmMCQGA1UECwwdRXhhbXBsZSBDZXJ0aWZpY2F0ZSBB
dXRob3JpdHkxIjAgBgNVBAMMGUV4YW1wbGUgQ2x1c3RlciBBdXRob3JpdHkwHhcN
MjMxMDE2MjAyMDAyWhcNMjkwNDA3MjAyMDAyWjBMMQswCQYDVQQGEwJTRTEQMA4G
A1UECgwHRXhhbXBsZTEYMBYGA1UECwwPRXhhbXBsZSBDbHVzdGVyMREwDwYDVQQD
DAhTZXJ2ZXIgNzCCASIwDQYJKoZIhvcNAQEBBQADggEPADCCAQoCggEBAPstn8gA
UZffyCJLOIR9JASHxNol9p8XB70Q6jMbg5TK4kFEGbI0NRj+g7zCXO2W7QMqLxrv
ACwIm3e6NRhCwl1ZYJtjC3BOVKRW/MWu2juS8qswiggLQ2sr8s49o2dgNCSN2F3A
338al+iYBylnmFpuoR9coBIrvfnz9KEFxvAvakbnJoTC4R1Tpo/5iqsLs9JjXpX0
mbVSC1uoZVyyxyGEc4fglpQpwrmlFFK2bnKEWCKckRkihb7OyE1eb+8lmLXUEX6+
XSCCHqXc3o0tc+WgxqGw8CHMCXy1k1nKBVbqRtvjovxSNtL54tSot51KBxeeZhir
4BDLp+Q2Iqyyc6ECAwEAAaOB8DCB7TAOBgNVHQ8BAf8EBAMCBaAwCQYDVR0TBAIw
ADAdBgNVHSUEFjAUBggrBgEFBQcDAQYIKwYBBQUHAwIwHQYDVR0OBBYEFJW5xNdR
aq0H4bduMXgjam4d2sRLMB8GA1UdIwQYMBaAFL6y0bNpx9wM204cooNW4/JuuGfM
MD0GCCsGAQUFBwEBBDEwLzAtBggrBgEFBQcwAoYhaHR0cDovL2V4YW1wbGUuY29t
L2NhL2NsdXN0ZXIuY2VyMDIGA1UdHwQrMCkwJ6AloCOGIWh0dHA6Ly9leGFtcGxl
LmNvbS9jYS9jbHVzdGVyLmNybDANBgkqhkiG9w0BAQUFAAOCAQEAmbdpytiaEmSL
4nujhy5ar+8DkwR3CWBz2ha7B12DYYEXKnWJE3D2wA+SMYJDdhglBTJIp1QluqvL
vZCVxFRqI0bd/3leTGdzzANFHwCcd4UZbGHuPBEj27ZoldjwhABppWhVVjINTGs+
SHDMceTkquvtLqVSp15IAMTufr87+DBbWDC4TI43qnvMj3cVCc1zwA5AvKkfXTzR
2nonQx1VLmVDyr4trfpQ2HN1Xni/5mPXYDyzBdl33vjGUoFDY0zu7J/Dpyo9bV1T
2wy9KZZZ/ButeVz9yIelEKx4V89r6tkAzoghs6iFeDOr5kMYvI0hNKK6p7yMz48h
2uizqCVpUg==
-----END CERTIFICATE-----
