Certificate:
    Data:
        Version: 3 (0x2)
        Serial Number: 11 (0xb)
    Signature Algorithm: sha1WithRSAEncryption
        Issuer: C=SE, O=Example, OU=Example Certificate Authority, CN=Example Cluster Authority
        Validity
            Not Before: Oct 16 20:20:03 2023 GMT
            Not After : Apr  7 20:20:03 2029 GMT
        Subject: C=SE, O=Example, OU=Example Cluster, CN=Server 10
        Subject Public Key Info:
            Public Key Algorithm: rsaEncryption
                Public-Key: (2048 bit)
                Modulus:
                    00:a5:41:6a:46:2a:f5:d6:52:a1:76:13:ad:24:b5:
                    5c:9c:1d:76:dd:41:6a:94:6c:1d:5e:1f:9f:d4:e2:
                    45:6f:02:42:fd:4c:bd:af:1b:f3:79:59:48:5a:86:
                    1a:0c:73:62:2c:b3:ad:e2:41:88:b2:fe:8d:35:8b:
                    5c:72:f3:65:e7:50:e8:fa:58:e3:9d:09:7e:8f:a7:
                    24:64:54:17:73:17:2b:98:08:7f:6a:08:44:f9:de:
                    a9:20:18:e1:50:cb:51:62:c3:1f:19:cd:9f:34:15:
                    54:85:98:6e:d0:17:2b:81:b3:39:f0:1e:a1:3e:c7:
                    13:14:27:41:91:41:63:d7:2b:82:71:a6:3c:a6:98:
                    4c:9c:1d:3e:e4:cf:ed:bd:54:9a:82:85:25:ca:8f:
                    16:a2:a5:4c:52:44:38:2d:78:5a:69:d3:ed:3e:27:
                    c6:88:4d:eb:16:4c:f8:4c:67:fc:3d:1f:c6:70:1a:
                    12:36:5e:b4:2c:68:46:0f:cd:73:7d:f6:e3:6d:ba:
                    b2:b0:d9:1c:c3:15:74:38:1a:56:5b:43:e1:03:9f:
                    ba:ae:7b:7f:58:f2:4a:0e:28:b9:60:e8:f3:66:8a:
                    9d:8f:7d:0d:0c:0e:3f:22:54:7b:f7:61:ad:46:c0:
                    23:ab:a0:ac:d9:a2:5c:c7:95:f0:30:1b:eb:74:4e:
                    42:d1
                Exponent: 65537 (0x10001)
        X509v3 extensions:
            X509v3 Key Usage: critical
                Digital Signature, Key Encipherment
            X509v3 Basic Constraints: 
                CA:FALSE
            X509v3 Extended Key Usage: 
                TLS Web Server Authentication, TLS Web Client Authentication
            X509v3 Subject Key Identifier: 
                E2:7E:BB:D8:94:E1:83:68:65:45:FB:13:0E:BE:17:DB:2E:BB:00:A9
            X509v3 Authority Key Identifier: 
                keyid:BE:B2:D1:B3:69:C7:DC:0C:DB:4E:1C:A2:83:56:E3:F2:6E:B8:67:CC

            Authority Information Access: 
                CA Issuers - URI:http://example.com/ca/cluster.cer

            X509v3 CRL Distribution Points: 

                Full Name:
                  URI:http://example.com/ca/cluster.crl

    Signature Algorithm: sha1WithRSAEncryption
         05:40:43:59:5c:52:d6:ea:8b:ba:5c:e0:fb:c0:f7:6e:fd:f8:
         ec:9b:ac:2e:21:33:bb:f5:e4:57:99:1a:d9:cd:70:52:ee:15:
         4c:c9:32:0e:5c:09:1d:79:d4:b4:e4:3e:87:ee:85:ea:d1:3f:
         90:1d:55:ef:0f:87:4d:7e:a6:d4:db:76:03:24:3a:6a:05:43:
         d3:b5:69:f4:63:a8:ca:ed:d7:70:ca:e2:d8:75:a2:9e:10:6d:
         e0:bf:cb:91:e2:4b:dd:cd:8b:cf:e1:7e:d6:a2:b2:07:59:e5:
         96:da:d7:c5:88:92:f8:89:b7:de:19:32:27:0b:29:a0:cb:f7:
         7c:b8:f8:6f:62:9f:aa:39:17:40:5d:fe:2c:91:2d:7e:94:ca:
         d8:84:c3:9c:05:d1:b5:93:ae:09:34:5f:4a:ab:d1:9d:96:e4:
         4f:66:97:69:b5:fd:b1:87:50:61:2f:49:56:fe:02:40:c2:97:
         86:70:38:f3:49:9b:f0:ff:c5:9d:f6:45:9e:1d:62:15:14:83:
         87:a1:04:57:a9:c5:ae:3e:d5:4e:8f:a6:3f:03:06:02:92:7f:
         31:c4:4b:f4:c6:4b:f9:23:6c:d3:89:06:98:68:7b:8e:bf:a9:
         89:c2:64:80:e4:3e:74:ab:7d:6c:7c:bc:dd:39:2f:5a:c9:27:
         3f:35:db:d6
-----BEGIN CERTIFICATE-----
MIIEJDCCAwygAwIBAgIBCzANBgkqhkiG9w0BAQUFADBrMQswCQYDVQQGEwJTRTEQ
MA4GA1UECgwHRXhhbXBsZTEmMCQGA1UECwwdRXhhbXBsZSBDZXJ0aWZpY2F0ZSBB
dXRob3JpdHkxIjAgBgNVBAMMGUV4YW1wbGUgQ2x1c3RlciBBdXRob3JpdHkwHhcN
MjMxMDE2MjAyMDAzWhcNMjkwNDA3MjAyMDAzWjBNMQswCQYDVQQGEwJTRTEQMA4G
A1UECgwHRXhhbXBsZTEYMBYGA1UECwwPRXhhbXBsZSBDbHVzdGVyMRIwEAYDVQQD
DAlTZXJ2ZXIgMTAwggEiMA0GCSqGSIb3DQEBAQUAA4IBDwAwggEKAoIBAQClQWpG
KvXWUqF2E60ktVycHXbdQWqUbB1eH5/U4kVvAkL9TL2vG/N5WUhahhoMc2Iss63i
QYiy/o01i1xy82XnUOj6WOOdCX6PpyRkVBdzFyuYCH9qCET53qkgGOFQy1Fiwx8Z
zZ80FVSFmG7QFyuBsznwHqE+xxMUJ0GRQWPXK4JxpjymmEycHT7kz+29VJqChSXK
jxaipUxSRDgteFpp0+0+J8aITesWTPhMZ/w9H8ZwGhI2XrQsaEYPzXN99uNturKw
2RzDFXQ4GlZbQ+EDn7que39Y8koOKLlg6PNmip2PfQ0MDj8iVHv3Ya1GwCOroKzZ
olzHlfAwG+t0TkLRAgMBAAGjgfAwge0wDgYDVR0PAQH/BAQDAgWgMAkGA1UdEwQC
MAAwHQYDVR0lBBYwFAYIKwYBBQUHAwEGCCsGAQUFBwMCMB0GA1UdDgQWBBTifrvY
lOGDaGVF+xMOvhfbLrsAqTAfBgNVHSMEGDAWgBS+stGzacfcDNtOHKKDVuPybrhn
zDA9BggrBgEFBQcBAQQxMC8wLQYIKwYBBQUHMAKGIWh0dHA6Ly9leGFtcGxlLmNv
bS9jYS9jbHVzdGVyLmNlcjAyBgNVHR8EKzApMCegJaAjhiFodHRwOi8vZXhhbXBs
ZS5jb20vY2EvY2x1c3Rlci5jcmwwDQYJKoZIhvcNAQEFBQADggEBAAVAQ1lcUtbq
i7pc4PvA9279+OybrC4hM7v15FeZGtnNcFLuFUzJMg5cCR151LTkPofuherRP5Ad
Ve8Ph01+ptTbdgMkOmoFQ9O1afRjqMrt13DK4th1op4QbeC/y5HiS93Ni8/hftai
sgdZ5Zba18WIkviJt94ZMicLKaDL93y4+G9in6o5F0Bd/iyRLX6UytiEw5wF0bWT
rgk0X0qr0Z2W5E9ml2m1/bGHUGEvSVb+AkDCl4ZwOPNJm/D/xZ32RZ4dYhUUg4eh
BFepxa4+1U6Ppj8DBgKSfzHES/TGS/kjbNOJBphoe46/qYnCZIDkPnSrfWx8vN05
L1rJJz8129Y=
-----END CERTIFICATE-----
