Certificate:
    Data:
        Version: 3 (0x2)
        Serial Number: 1 (0x1)
    Signature Algorithm: sha1WithRSAEncryption
        Issuer: C=SE, O=Example, OU=Example Certificate Authority, CN=Example Root CA
        Validity
            Not Before: Oct 16 20:20:00 2023 GMT
            Not After : Sep 22 20:20:00 2123 GMT
        Subject: C=SE, O=Example, OU=Example Certificate Authority, CN=Example Root CA
        Subject Public Key Info:
            Public Key Algorithm: rsaEncryption
                Public-Key: (2048 bit)
                Modulus:
                    00:e4:7b:f2:c0:89:c3:e0:90:53:96:82:47:f4:82:
                    ff:98:6f:4b:75:26:7b:a9:36:d9:7c:e9:9f:f2:f9:
                    d8:0e:20:d2:95:a8:73:e4:18:55:00:23:07:bc:fc:
                    a2:9b:2e:aa:1c:27:fe:d5:97:f6:59:1a:70:1f:57:
                    13:b3:e5:a0:8f:0d:52:84:8a:27:d3:96:29:da:52:
                    86:f8:06:27:cc:7e:dc:f4:17:42:b1:32:78:7b:d8:
                    63:2c:6f:fe:d3:5f:ab:8c:30:f9:c0:45:23:3a:c0:
                    14:91:95:1e:0f:5d:16:54:58:51:69:9b:47:7f:74:
                    3d:25:be:55:f5:92:b0:b5:43:8f:28:5e:40:ff:21:
                    0b:91:4b:d6:6b:4f:12:8d:5f:d2:72:a6:d5:07:22:
                    d5:68:28:43:eb:50:75:3f:ab:a3:0b:f7:18:4f:d9:
                    5e:eb:09:0f:95:71:74:19:92:a5:61:ce:8e:3d:ae:
                    f1:74:80:56:12:f4:12:d6:a3:90:3c:58:15:62:92:
                    81:f0:43:b6:3c:be:6f:5c:e0:a7:a0:b0:72:de:1c:
                    80:f2:85:e2:10:b5:ea:eb:44:8f:40:69:64:bc:b0:
                    e7:27:39:05:c4:b9:ec:14:50:11:17:5c:b3:8f:e8:
                    b3:69:92:3c:69:59:49:2f:de:9d:0e:b3:42:b4:17:
                    bb:0b
                Exponent: 65537 (0x10001)
        X509v3 extensions:
            X509v3 Key Usage: critical
                Certificate Sign, CRL Sign
            X509v3 Basic Constraints: critical
                CA:TRUE
            X509v3 Subject Key Identifier: 
                21:20:7F:7A:D1:4E:97:AC:18:6F:E1:BD:30:86:26:FB:6A:AD:07:1F
            X509v3 Authority Key Identifier: 
                keyid:21:20:7F:7A:D1:4E:97:AC:18:6F:E1:BD:30:86:26:FB:6A:AD:07:1F

    Signature Algorithm: sha1WithRSAEncryption
         77:94:16:5c:76:e3:1b:bf:e7:0f:f7:f9:ad:31:97:09:0a:df:
         9c:de:58:3c:10:58:10:3e:7d:f8:57:d9:13:b6:8b:9c:42:49:
         d7:4b:0e:e5:10:c8:73:20:e7:3f:0c:a3:d2:f5:a4:62:e6:09:
         0d:21:1f:54:04:53:a6:6c:52:a3:5a:31:9d:23:95:99:97:81:
         6f:0d:57:2e:99:48:ff:91:67:8b:e5:e0:a0:c9:f2:f1:ee:38:
         8f:a0:be:f5:6c:a3:63:d8:6f:9f:3d:22:76:83:c5:57:77:e6:
         d5:1e:a6:04:70:eb:25:39:7b:fc:2c:d3:4c:c4:d1:77:d0:5b:
         1f:6d:ab:e0:c5:69:cc:fd:8e:90:be:6d:a0:2e:04:b6:5c:13:
         20:64:51:6e:b7:73:5e:bd:9a:1c:22:33:45:6c:a8:96:db:e5:
         9b:98:a0:38:91:bc:78:ba:5b:44:c1:03:b7:d4:88:c5:54:a7:
         63:a4:b1:4b:b2:f6:f1:a7:be:bb:0d:1a:92:51:5d:be:02:cf:
         18:82:56:67:70:28:51:3a:69:0b:66:f1:10:a7:c6:35:72:ce:
         b8:b7:87:4a:ea:a3:60:3c:a1:f5:94:6f:37:db:d4:30:fc:af:
         09:27:5a:f9:d3:14:08:de:f4:45:d7:39:9f:0c:9e:f4:22:48:
         c7:70:ef:76
-----BEGIN CERTIFICATE-----
MIIDojCCAoqgAwIBAgIBATANBgkqhkiG9w0BAQUFADBhMQswCQYDVQQGEwJTRTEQ
MA4GA1UECgwHRXhhbXBsZTEmMCQGA1UECwwdRXhhbXBsZSBDZXJ0aWZpY2F0ZSBB
dXRob3JpdHkxGDAWBgNVBAMMD0V4YW1wbGUgUm9vdCBDQTAgFw0yMzEwMTYyMDIw
MDBaGA8yMTIzMDkyMjIwMjAwMFowYTELMAkGA1UEBhMCU0UxEDAOBgNVBAoMB0V4
YW1wbGUxJjAkBgNVBAsMHUV4YW1wbGUgQ2VydGlmaWNhdGUgQXV0aG9yaXR5MRgw
FgYDVQQDDA9FeGFtcGxlIFJvb3QgQ0EwggEiMA0GCSqGSIb3DQEBAQUAA4IBDwAw
ggEKAoIBAQDke/LAicPgkFOWgkf0gv+Yb0t1JnupNtl86Z/y+dgOINKVqHPkGFUA
Iwe8/KKbLqocJ/7Vl/ZZGnAfVxOz5aCPDVKEiifTlinaUob4BifMftz0F0KxMnh7
2GMsb/7TX6uMMPnARSM6wBSRlR4PXRZUWFFpm0d/dD0lvlX1krC1Q48oXkD/IQuR
S9ZrTxKNX9JyptUHItVoKEPrUHU/q6ML9xhP2V7rCQ+VcXQZkqVhzo49rvF0gFYS
9BLWo5A8WBVikoHwQ7Y8vm9c4KegsHLeHIDyheIQterrRI9AaWS8sOcnOQXEuewU
UBEXXLOP6LNpkjxpWUkv3p0Os0K0F7sLAgMBAAGjYzBhMA4GA1UdDwEB/wQEAwIB
BjAPBgNVHRMBAf8EBTADAQH/MB0GA1UdDgQWBBQhIH960U6XrBhv4b0whib7aq0H
HzAfBgNVHSMEGDAWgBQhIH960U6XrBhv4b0whib7aq0HHzANBgkqhkiG9w0BAQUF
AAOCAQEAd5QWXHbjG7/nD/f5rTGXCQrfnN5YPBBYED59+FfZE7aLnEJJ10sO5RDI
cyDnPwyj0vWkYuYJDSEfVARTpmxSo1oxnSOVmZeBbw1XLplI/5Fni+XgoMny8e44
j6C+9WyjY9hvnz0idoPFV3fm1R6mBHDrJTl7/CzTTMTRd9BbH22r4MVpzP2OkL5t
oC4EtlwTIGRRbrdzXr2aHCIzRWyoltvlm5igOJG8eLpbRMEDt9SIxVSnY6SxS7L2
8ae+uw0aklFdvgLPGIJWZ3AoUTppC2bxEKfGNXLOuLeHSuqjYDyh9ZRvN9vUMPyv
CSda+dMUCN70Rdc5nwye9CJIx3Dvdg==
-----END CERTIFICATE-----
