Certificate:
    Data:
        Version: 3 (0x2)
        Serial Number: 10 (0xa)
    Signature Algorithm: sha1WithRSAEncryption
        Issuer: C=SE, O=Example, OU=Example Certificate Authority, CN=Example Cluster Authority
        Validity
            Not Before: Oct 16 20:20:02 2023 GMT
            Not After : Apr  7 20:20:02 2029 GMT
        Subject: C=SE, O=Example, OU=Example Cluster, CN=Server 9
        Subject Public Key Info:
            Public Key Algorithm: rsaEncryption
                Public-Key: (2048 bit)
                Modulus:
                    00:c8:83:c9:bc:f0:34:09:72:50:20:99:00:3c:b0:
                    4c:ac:41:e2:49:f6:5f:e8:6f:97:df:5e:d8:ec:cd:
                    ae:01:d5:45:de:e9:dd:8d:c0:b4:83:47:87:c7:26:
                    cd:eb:39:16:6a:9c:ea:5b:5d:55:7f:e4:b4:07:6e:
                    08:21:22:f3:f0:60:05:09:c3:08:71:de:1b:19:59:
                    c4:28:93:b3:9c:3f:26:36:36:ea:93:4b:d9:81:4e:
                    e2:ac:8f:4a:58:b0:72:7c:ff:fb:49:69:39:3d:6b:
                    dd:cc:aa:b5:0a:bc:77:77:67:9a:5c:11:45:20:84:
                    c6:23:41:cd:03:09:19:c2:62:4f:ae:93:fa:96:2e:
                    40:34:02:51:bd:ed:f2:34:02:dd:31:a2:1e:66:4e:
                    67:58:2f:9c:e3:25:7e:77:19:bb:94:27:3d:9a:c1:
                    0c:64:e5:87:ce:af:ad:a7:d9:1c:d5:3f:49:90:9c:
                    8d:19:99:f1:82:9a:ea:75:df:57:33:dc:82:cf:40:
                    7e:89:7e:8d:9e:bd:3e:f6:bb:d5:b1:41:e4:4c:60:
                    b9:bb:e6:4c:84:84:be:fa:e2:94:9d:4b:55:b2:65:
                    7d:0a:2b:85:4a:ee:6b:0b:36:67:d4:74:05:0b:31:
                    16:20:60:d5:c3:5b:c5:09:1c:df:01:2f:b6:ee:3c:
                    bb:95
                Exponent: 65537 (0x10001)
        X509v3 extensions:
            X509v3 Key Usage: critical
                Digital Signature, Key Encipherment
            X509v3 Basic Constraints: 
                CA:FALSE
            X509v3 Extended Key Usage: 
                TLS Web Server Authentication, TLS Web Client Authentication
            X509v3 Subject Key Identifier: 
                6D:A3:D2:6A:31:A7:DD:7B:F8:AE:52:A1:27:C5:35:68:5B:7F:B3:38
            X509v3 Authority Key Identifier: 
                keyid:BE:B2:D1:B3:69:C7:DC:0C:DB:4E:1C:A2:83:56:E3:F2:6E:B8:67:CC

            Authority Information Access: 
                CA Issuers - URI:http://example.com/ca/cluster.cer

            X509v3 CRL Distribution Points: 

                Full Name:
                  URI:http://example.com/ca/cluster.crl

    Signature Algorithm: sha1WithRSAEncryption
         36:0c:c7:5e:f7:81:a4:60:d7:65:01:6e:f2:55:5b:93:a0:39:
         48:25:cc:3d:9d:71:e2:a6:35:0c:f8:d0:7c:58:87:85:fc:51:
         24:7a:f6:18:9f:0a:67:46:f2:43:f7:1b:52:f8:c6:a7:c2:4e:
         b6:2c:8f:e7:04:02:e1:c7:7a:8b:ae:a8:5d:5c:90:60:10:92:
         07:de:f9:5d:7d:39:8d:d6:0f:fe:75:7f:fe:f9:25:5a:ff:8b:
         a6:48:46:35:1b:c0:f5:4e:12:3f:f7:c5:76:25:4f:7c:b9:75:
         2d:04:ea:0a:c6:a1:f6:71:dc:79:24:41:cd:06:d4:1a:a3:3f:
         d3:70:e3:4d:22:34:85:89:23:11:a6:dc:26:9f:45:b1:1f:e5:
         e1:95:cf:32:65:82:47:28:3c:ae:a0:06:6c:0c:26:e3:16:7f:
         f2:d2:69:22:31:f9:1d:d6:da:6c:c6:34:2a:f1:36:0a:d2:b9:
         c1:da:c2:cf:94:58:b9:3a:54:ed:cd:e8:1c:9d:1c:1b:c4:2c:
         14:93:fd:21:7b:9f:62:6c:da:31:da:fe:af:e3:02:89:b3:3e:
         a4:72:8e:2c:f4:23:9c:1d:82:bd:7c:71:b4:bc:25:d9:c1:c3:
         de:b1:4e:c6:ce:95:1a:8a:70:56:6b:c8:0e:ba:dc:3f:d8:ef:
         3a:83:cc:c7
-----BEGIN CERTIFICATE-----
MIIEIzCCAwugAwIBAgIBCjANBgkqhkiG9w0BAQUFADBrMQswCQYDVQQGEwJTRTEQ
MA4GA1UECgwHRXhhbXBsZTEmMCQGA1UECwwdRXhhbXBsZSBDZXJ0aWZpY2F0ZSBB
dXRob3JpdHkxIjAgBgNVBAMMGUV4YW1wbGUgQ2x1c3RlciBBdXRob3JpdHkwHhcN
MjMxMDE2MjAyMDAyWhcNMjkwNDA3MjAyMDAyWjBMMQswCQYDVQQGEwJTRTEQMA4G
A1UECgwHRXhhbXBsZTEYMBYGA1UECwwPRXhhbXBsZSBDbHVzdGVyMREwDwYDVQQD
DAhTZXJ2ZXIgOTCCASIwDQYJKoZIhvcNAQEBBQADggEPADCCAQoCggEBAMiDybzw
NAlyUCCZADywTKxB4kn2X+hvl99e2OzNrgHVRd7p3Y3AtINHh8cmzes5Fmqc6ltd
VX/ktAduCCEi8/BgBQnDCHHeGxlZxCiTs5w/JjY26pNL2YFO4qyPSliwcnz/+0lp
OT1r3cyqtQq8d3dnmlwRRSCExiNBzQMJGcJiT66T+pYuQDQCUb3t8jQC3TGiHmZO
Z1gvnOMlfncZu5QnPZrBDGTlh86vrafZHNU/SZCcjRmZ8YKa6nXfVzPcgs9Afol+
jZ69Pva71bFB5ExgubvmTISEvvrilJ1LVbJlfQorhUruaws2Z9R0BQsxFiBg1cNb
xQkc3wEvtu48u5UCAwEAAaOB8DCB7TAOBgNVHQ8BAf8EBAMCBaAwCQYDVR0TBAIw
ADAdBgNVHSUEFjAUBggrBgEFBQcDAQYIKwYBBQUHAwIwHQYDVR0OBBYEFG2j0mox
p917+K5SoSfFNWhbf7M4MB8GA1UdIwQYMBaAFL6y0bNpx9wM204cooNW4/JuuGfM
MD0GCCsGAQUFBwEBBDEwLzAtBggrBgEFBQcwAoYhaHR0cDovL2V4YW1wbGUuY29t
L2NhL2NsdXN0ZXIuY2VyMDIGA1UdHwQrMCkwJ6AloCOGIWh0dHA6Ly9leGFtcGxl
LmNvbS9jYS9jbHVzdGVyLmNybDANBgkqhkiG9w0BAQUFAAOCAQEANgzHXveBpGDX
ZQFu8lVbk6A5SCXMPZ1x4qY1DPjQfFiHhfxRJHr2GJ8KZ0byQ/cbUvjGp8JOtiyP
5wQC4cd6i66oXVyQYBCSB975XX05jdYP/nV//vklWv+LpkhGNRvA9U4SP/fFdiVP
fLl1LQTqCsah9nHceSRBzQbUGqM/03DjTSI0hYkjEabcJp9FsR/l4ZXPMmWCRyg8
rqAGbAwm4xZ/8tJpIjH5HdbabMY0KvE2CtK5wdrCz5RYuTpU7c3oHJ0cG8QsFJP9
IXufYmzaMdr+r+MCibM+pHKOLPQjnB2CvXxxtLwl2cHD3rFOxs6VGopwVmvIDrrc
P9jvOoPMxw==
-----END CERTIFICATE-----
